

Microchip MPLAB XC8 Assembler V2.40 build 20220703182018 
                                                                                               Tue Nov 15 21:02:45 2022

Microchip MPLAB XC8 C Compiler v2.40 (Free license) build 20220703182018 Og1 
     1                           	processor	18F57Q43
     2                           	fnconf	rparam,??,?,0
     3                           	pagewidth 120
     4                           	opt	flic
     5                           	psect	smallconst,global,reloc=2,class=SMALLCONST,delta=1,noexec
     6                           	psect	cinit,global,reloc=2,class=CODE,delta=1
     7                           	psect	bssCOMRAM,global,class=COMRAM,space=1,delta=1,lowdata,noexec
     8                           	psect	bssBANK5,global,class=BANK5,space=1,delta=1,lowdata,noexec
     9                           	psect	bssBANK6,global,class=BANK6,space=1,delta=1,lowdata,noexec
    10                           	psect	cstackBANK6,global,class=BANK6,space=1,delta=1,lowdata,noexec
    11                           	psect	cstackBANK5,global,class=BANK5,space=1,delta=1,lowdata,noexec
    12                           	psect	cstackCOMRAM,global,class=COMRAM,space=1,delta=1,lowdata,noexec
    13                           	psect	text0,global,reloc=2,class=CODE,delta=1
    14                           	psect	text1,global,reloc=4,class=CODE,delta=1
    15                           	psect	text2,global,reloc=2,class=CODE,delta=1,group=3
    16                           	psect	text3,global,reloc=2,class=CODE,delta=1,group=1
    17                           	psect	text4,global,reloc=2,class=CODE,delta=1,group=1
    18                           	psect	text5,global,reloc=2,class=CODE,delta=1,group=1
    19                           	psect	text6,global,reloc=2,class=CODE,delta=1,group=3
    20                           	psect	text7,global,reloc=2,class=CODE,delta=1,group=1
    21                           	psect	text8,global,reloc=2,class=CODE,delta=1,group=3
    22                           	psect	text9,global,reloc=2,class=CODE,delta=1,group=3
    23                           	psect	text10,global,reloc=2,class=CODE,delta=1,group=3
    24                           	psect	text11,global,reloc=2,class=CODE,delta=1,group=3
    25                           	psect	text12,global,reloc=2,class=CODE,delta=1,group=3
    26                           	psect	text13,global,reloc=2,class=CODE,delta=1,group=3
    27                           	psect	text14,global,reloc=2,class=CODE,delta=1,group=3
    28                           	psect	text15,global,reloc=2,class=CODE,delta=1,group=2
    29                           	psect	text16,global,reloc=2,class=CODE,delta=1,group=2
    30                           	psect	text17,global,reloc=2,class=CODE,delta=1,group=2
    31                           	psect	text18,global,reloc=2,class=CODE,delta=1,group=2
    32                           	psect	text19,global,reloc=2,class=CODE,delta=1,group=2
    33                           	psect	text20,global,reloc=2,class=CODE,delta=1,group=2
    34                           	psect	text21,global,reloc=2,class=CODE,delta=1,group=2
    35                           	psect	text22,global,reloc=2,class=CODE,delta=1,group=2
    36                           	psect	text23,global,reloc=2,class=CODE,delta=1,group=2
    37                           	psect	ivt0x8,global,reloc=2,class=CODE,delta=1,noexec,keep,optim=
    38                           	psect	intsave_regs,global,class=BIGRAM,space=1,delta=1,noexec
    39                           	psect	rparam,global,class=COMRAM,space=1,delta=1,noexec
    40                           	psect	idloc,global,abs,ovrld,class=IDLOC,space=5,delta=1,noexec
    41                           	psect	config,global,abs,ovrld,class=CONFIG,space=4,delta=1,noexec
    42   000000                     
    43                           ; Version 2.40
    44                           ; Generated 08/12/2021 GMT
    45                           ; 
    46                           ; Copyright © 2021, Microchip Technology Inc. and its subsidiaries ("Microchip")
    47                           ; All rights reserved.
    48                           ; 
    49                           ; This software is developed by Microchip Technology Inc. and its subsidiaries ("Microch
      +                          ip").
    50                           ; 
    51                           ; Redistribution and use in source and binary forms, with or without modification, are
    52                           ; permitted provided that the following conditions are met:
    53                           ; 
    54                           ;     1. Redistributions of source code must retain the above copyright notice, this lis
      +                          t of
    55                           ;        conditions and the following disclaimer.
    56                           ; 
    57                           ;     2. Redistributions in binary form must reproduce the above copyright notice, this 
      +                          list
    58                           ;        of conditions and the following disclaimer in the documentation and/or other
    59                           ;        materials provided with the distribution. Publication is not required when
    60                           ;        this file is used in an embedded application.
    61                           ; 
    62                           ;     3. Microchip's name may not be used to endorse or promote products derived from th
      +                          is
    63                           ;        software without specific prior written permission.
    64                           ; 
    65                           ; THIS SOFTWARE IS PROVIDED BY MICROCHIP "AS IS" AND ANY EXPRESS OR IMPLIED WARRANTIES,
    66                           ; INCLUDING, BUT NOT LIMITED TO, THE IMPLIED WARRANTIES OF MERCHANTABILITY AND FITNESS F
      +                          OR
    67                           ; PURPOSE ARE DISCLAIMED.  IN NO EVENT SHALL MICROCHIP BE LIABLE FOR ANY DIRECT, INDIREC
      +                          T,
    68                           ; INCIDENTAL, SPECIAL, EXEMPLARY, OR CONSEQUENTIAL DAMAGES (INCLUDING BUT NOT LIMITED TO
    69                           ; PROCUREMENT OF SUBSTITUTE GOODS OR SERVICES; LOSS OF USE, DATA OR PROFITS; OR BUSINESS
    70                           ; INTERRUPTION) HOWSOEVER CAUSED AND ON ANY THEORY OF LIABILITY, WHETHER IN CONTRACT, ST
      +                          RICT
    71                           ; LIABILITY, OR TORT (INCLUDING NEGLIGENCE OR OTHERWISE) ARISING IN ANY WAY OUT OF THE U
      +                          SE OF
    72                           ; THIS SOFTWARE, EVEN IF ADVISED OF THE POSSIBILITY OF SUCH DAMAGE.
    73                           ; 
    74                           ; 
    75                           ; Code-generator required, PIC18F57Q43 Definitions
    76                           ; 
    77                           ; SFR Addresses
    78   000000                     _RF0PPS	set	553
    79   000000                     _U1RXPPSbits	set	626
    80   000000                     _U1TXB	set	675
    81   000000                     _U1CON0bits	set	683
    82   000000                     _ADRESH	set	1003
    83   000000                     _LATC	set	1216
    84   000000                     _TRISAbits	set	1222
    85   000000                     _ADACQ	set	1006
    86   000000                     _ADCON0bits	set	1011
    87   000000                     _ADREFbits	set	1016
    88   000000                     _ADPCHbits	set	1004
    89   000000                     _ANSELAbits	set	1024
    90   000000                     _PIR1bits	set	1199
    91   000000                     _U1BRG	set	686
    92   000000                     _U1CON1bits	set	684
    93   000000                     _U1FIFObits	set	688
    94   000000                     _IPR1bits	set	867
    95   000000                     _TRISC	set	1224
    96   000000                     _ANSELC	set	1040
    97   000000                     _TRISFbits	set	1227
    98   000000                     _ANSELF	set	1064
    99   000000                     _INTCON0bits	set	1238
   100   000000                     _PIE1bits	set	1183
   101   000000                     _ADACTbits	set	1017
   102   000000                     _ADCON3bits	set	1014
   103   000000                     _ADPRE	set	1009
   104                           
   105                           	psect	smallconst
   106   002600                     __psmallconst:
   107                           	callstack 0
   108   002600  00                 	db	0
   109   002601                     STR_1:
   110   002601  0D                 	db	13
   111   002602  0A                 	db	10
   112   002603  56                 	db	86	;'V'
   113   002604  6F                 	db	111	;'o'
   114   002605  6C                 	db	108	;'l'
   115   002606  74                 	db	116	;'t'
   116   002607  61                 	db	97	;'a'
   117   002608  6A                 	db	106	;'j'
   118   002609  65                 	db	101	;'e'
   119   00260A  3A                 	db	58	;':'
   120   00260B  20                 	db	32
   121   00260C  25                 	db	37
   122   00260D  66                 	db	102	;'f'
   123   00260E  00                 	db	0
   124   00260F                     STR_2:
   125   00260F  69                 	db	105	;'i'
   126   002610  6E                 	db	110	;'n'
   127   002611  66                 	db	102	;'f'
   128   002612  00                 	db	0
   129   002613                     STR_5:
   130   002613  6E                 	db	110	;'n'
   131   002614  61                 	db	97	;'a'
   132   002615  6E                 	db	110	;'n'
   133   002616  00                 	db	0
   134   002617  00                 	db	0	; dummy byte at the end
   135   000000                     
   136                           ; #config settings
   137                           
   138                           	psect	cinit
   139   004B4C                     __pcinit:
   140                           	callstack 0
   141   004B4C                     start_initialization:
   142                           	callstack 0
   143   004B4C                     __initialization:
   144                           	callstack 0
   145                           
   146                           ; Clear objects allocated to BANK6 (80 bytes)
   147   004B4C  EE01  F200         	lfsr	0,__pbssBANK6
   148   004B50  0E50               	movlw	80
   149   004B52                     clear_0:
   150   004B52  6AEE               	clrf	postinc0,c
   151   004B54  06E8               	decf	wreg,f,c
   152   004B56  E1FD               	bnz	clear_0
   153                           
   154                           ; Clear objects allocated to BANK5 (11 bytes)
   155   004B58  EE01  F1B8         	lfsr	0,__pbssBANK5
   156   004B5C  0E0B               	movlw	11
   157   004B5E                     clear_1:
   158   004B5E  6AEE               	clrf	postinc0,c
   159   004B60  06E8               	decf	wreg,f,c
   160   004B62  E1FD               	bnz	clear_1
   161                           
   162                           ; Clear objects allocated to COMRAM (2 bytes)
   163   004B64  6A5E               	clrf	(__pbssCOMRAM+1)& (0+255),c
   164   004B66  6A5D               	clrf	__pbssCOMRAM& (0+255),c
   165                           
   166                           ;
   167                           ; Setup IVTBASE
   168                           ;
   169   004B68  0104               	movlb	4
   170   004B6A  0E08               	movlw	(ivt0x8_base shr 0)& (0+255)
   171   004B6C  6F5D               	movwf	93,b
   172   004B6E  0E00               	movlw	(ivt0x8_base shr (0+8))& (0+255)
   173   004B70  6F5E               	movwf	94,b
   174   004B72  0E00               	movlw	(ivt0x8_base shr (0+16))& (0+255)
   175   004B74  6F5F               	movwf	95,b
   176   004B76                     end_of_initialization:
   177                           	callstack 0
   178   004B76                     __end_of__initialization:
   179                           	callstack 0
   180   004B76  0100               	movlb	0
   181   004B78  EFF8  F023         	goto	_main	;jump to C main() function
   182                           
   183                           	psect	bssCOMRAM
   184   00055D                     __pbssCOMRAM:
   185                           	callstack 0
   186   00055D                     _prec:
   187                           	callstack 0
   188   00055D                     	ds	2
   189                           
   190                           	psect	bssBANK5
   191   0005B8                     __pbssBANK5:
   192                           	callstack 0
   193   0005B8                     floorf@F526:
   194                           	callstack 0
   195   0005B8                     	ds	4
   196   0005BC                     ___fpclassifyf@F465:
   197                           	callstack 0
   198   0005BC                     	ds	4
   199   0005C0                     _width:
   200                           	callstack 0
   201   0005C0                     	ds	2
   202   0005C2                     _flags:
   203                           	callstack 0
   204   0005C2                     	ds	1
   205                           
   206                           	psect	bssBANK6
   207   000600                     __pbssBANK6:
   208                           	callstack 0
   209   000600                     _dbuf:
   210                           	callstack 0
   211   000600                     	ds	80
   212                           
   213                           	psect	cstackBANK6
   214   000000                     __pcstackBANK6:
   215                           	callstack 0
   216   000000                     
   217                           ; 1 bytes @ 0x0
   218                           
   219                           	psect	cstackBANK5
   220   000560                     __pcstackBANK5:
   221                           	callstack 0
   222   000560                     efgtoa@ne:
   223                           	callstack 0
   224                           
   225                           ; 2 bytes @ 0x0
   226   000560                     	ds	2
   227   000562                     efgtoa@p:
   228                           	callstack 0
   229                           
   230                           ; 2 bytes @ 0x2
   231   000562                     	ds	2
   232   000564                     efgtoa@t:
   233                           	callstack 0
   234                           
   235                           ; 2 bytes @ 0x4
   236   000564                     	ds	2
   237   000566                     _efgtoa$1252:
   238                           	callstack 0
   239                           
   240                           ; 2 bytes @ 0x6
   241   000566                     	ds	2
   242   000568                     efgtoa@pp:
   243                           	callstack 0
   244                           
   245                           ; 1 bytes @ 0x8
   246   000568                     	ds	1
   247   000569                     efgtoa@mode:
   248                           	callstack 0
   249                           
   250                           ; 1 bytes @ 0x9
   251   000569                     	ds	1
   252   00056A                     efgtoa@nmode:
   253                           	callstack 0
   254                           
   255                           ; 1 bytes @ 0xA
   256   00056A                     	ds	1
   257   00056B                     efgtoa@d:
   258                           	callstack 0
   259                           
   260                           ; 2 bytes @ 0xB
   261   00056B                     	ds	2
   262   00056D                     efgtoa@m:
   263                           	callstack 0
   264                           
   265                           ; 2 bytes @ 0xD
   266   00056D                     	ds	2
   267   00056F                     efgtoa@e:
   268                           	callstack 0
   269                           
   270                           ; 2 bytes @ 0xF
   271   00056F                     	ds	2
   272   000571                     efgtoa@w:
   273                           	callstack 0
   274                           
   275                           ; 2 bytes @ 0x11
   276   000571                     	ds	2
   277   000573                     efgtoa@ou:
   278                           	callstack 0
   279                           
   280                           ; 4 bytes @ 0x13
   281   000573                     	ds	4
   282   000577                     efgtoa@i:
   283                           	callstack 0
   284                           
   285                           ; 2 bytes @ 0x17
   286   000577                     	ds	2
   287   000579                     efgtoa@h:
   288                           	callstack 0
   289                           
   290                           ; 4 bytes @ 0x19
   291   000579                     	ds	4
   292   00057D                     efgtoa@l:
   293                           	callstack 0
   294                           
   295                           ; 4 bytes @ 0x1D
   296   00057D                     	ds	4
   297   000581                     efgtoa@sign:
   298                           	callstack 0
   299                           
   300                           ; 1 bytes @ 0x21
   301   000581                     	ds	1
   302   000582                     efgtoa@n:
   303                           	callstack 0
   304                           
   305                           ; 2 bytes @ 0x22
   306   000582                     	ds	2
   307   000584                     efgtoa@g:
   308                           	callstack 0
   309                           
   310                           ; 4 bytes @ 0x24
   311   000584                     	ds	4
   312   000588                     efgtoa@u:
   313                           	callstack 0
   314                           
   315                           ; 4 bytes @ 0x28
   316   000588                     	ds	4
   317   00058C                     vfpfcnvrt@fp:
   318                           	callstack 0
   319                           
   320                           ; 2 bytes @ 0x2C
   321   00058C                     	ds	2
   322   00058E                     vfpfcnvrt@fmt:
   323                           	callstack 0
   324                           
   325                           ; 2 bytes @ 0x2E
   326   00058E                     	ds	2
   327   000590                     vfpfcnvrt@ap:
   328                           	callstack 0
   329                           
   330                           ; 2 bytes @ 0x30
   331   000590                     	ds	2
   332   000592                     ?_vfprintf:
   333                           	callstack 0
   334   000592                     vfprintf@fp:
   335                           	callstack 0
   336                           
   337                           ; 2 bytes @ 0x32
   338   000592                     	ds	2
   339   000594                     vfprintf@fmt:
   340                           	callstack 0
   341                           
   342                           ; 2 bytes @ 0x34
   343   000594                     	ds	2
   344   000596                     vfprintf@ap:
   345                           	callstack 0
   346                           
   347                           ; 2 bytes @ 0x36
   348   000596                     	ds	2
   349   000598                     ?_sprintf:
   350                           	callstack 0
   351   000598                     sprintf@s:
   352                           	callstack 0
   353                           
   354                           ; 2 bytes @ 0x38
   355   000598                     	ds	2
   356   00059A                     sprintf@fmt:
   357                           	callstack 0
   358                           
   359                           ; 2 bytes @ 0x3A
   360   00059A                     	ds	6
   361   0005A0                     ADC_ISR@str_out:
   362                           	callstack 0
   363                           
   364                           ; 18 bytes @ 0x40
   365   0005A0                     	ds	18
   366   0005B2                     ADC_ISR@THEM:
   367                           	callstack 0
   368                           
   369                           ; 4 bytes @ 0x52
   370   0005B2                     	ds	4
   371   0005B6                     ADC_ISR@i:
   372                           	callstack 0
   373                           
   374                           ; 2 bytes @ 0x56
   375   0005B6                     	ds	2
   376                           
   377                           	psect	cstackCOMRAM
   378   000501                     __pcstackCOMRAM:
   379                           	callstack 0
   380   000501                     ?___fpclassifyf:
   381                           	callstack 0
   382   000501                     ?___fladd:
   383                           	callstack 0
   384   000501                     ?___fldiv:
   385                           	callstack 0
   386   000501                     ?_labs:
   387                           	callstack 0
   388   000501                     ?___flneg:
   389                           	callstack 0
   390   000501                     ?___fltol:
   391                           	callstack 0
   392   000501                     ?___xxtofl:
   393                           	callstack 0
   394   000501                     memcpy@d1:
   395                           	callstack 0
   396   000501                     fputc@c:
   397                           	callstack 0
   398   000501                     strcpy@dest:
   399                           	callstack 0
   400   000501                     ___fleq@ff1:
   401                           	callstack 0
   402   000501                     ___flneg@f1:
   403                           	callstack 0
   404   000501                     ___fltol@f1:
   405                           	callstack 0
   406   000501                     ___fladd@b:
   407                           	callstack 0
   408   000501                     ___fldiv@b:
   409                           	callstack 0
   410   000501                     ___xxtofl@val:
   411                           	callstack 0
   412   000501                     ___fpclassifyf@x:
   413                           	callstack 0
   414   000501                     labs@a:
   415                           	callstack 0
   416                           
   417                           ; 4 bytes @ 0x0
   418   000501                     	ds	2
   419   000503                     memcpy@s1:
   420                           	callstack 0
   421   000503                     fputc@fp:
   422                           	callstack 0
   423   000503                     strcpy@src:
   424                           	callstack 0
   425                           
   426                           ; 2 bytes @ 0x2
   427   000503                     	ds	2
   428   000505                     ??_fputc:
   429   000505                     ??___fpclassifyf:
   430   000505                     ??_labs:
   431   000505                     ??___fltol:
   432   000505                     ??___xxtofl:
   433   000505                     memcpy@n:
   434                           	callstack 0
   435   000505                     strcpy@s:
   436                           	callstack 0
   437   000505                     ___fleq@ff2:
   438                           	callstack 0
   439   000505                     ___fladd@a:
   440                           	callstack 0
   441   000505                     ___fldiv@a:
   442                           	callstack 0
   443                           
   444                           ; 4 bytes @ 0x4
   445   000505                     	ds	2
   446   000507                     memcpy@d:
   447                           	callstack 0
   448   000507                     strcpy@d:
   449                           	callstack 0
   450                           
   451                           ; 2 bytes @ 0x6
   452   000507                     	ds	2
   453   000509                     ??___fladd:
   454   000509                     ??___fldiv:
   455   000509                     ??___fleq:
   456   000509                     ___fltol@sign1:
   457                           	callstack 0
   458   000509                     ___xxtofl@sign:
   459                           	callstack 0
   460   000509                     ___fpclassifyf@e:
   461                           	callstack 0
   462   000509                     memcpy@s:
   463                           	callstack 0
   464                           
   465                           ; 2 bytes @ 0x8
   466   000509                     	ds	1
   467   00050A                     ___fltol@exp1:
   468                           	callstack 0
   469   00050A                     ___xxtofl@exp:
   470                           	callstack 0
   471   00050A                     fputs@s:
   472                           	callstack 0
   473                           
   474                           ; 2 bytes @ 0x9
   475   00050A                     	ds	1
   476   00050B                     memcpy@tmp:
   477                           	callstack 0
   478   00050B                     ___xxtofl@arg:
   479                           	callstack 0
   480   00050B                     ___fpclassifyf@u:
   481                           	callstack 0
   482                           
   483                           ; 4 bytes @ 0xA
   484   00050B                     	ds	1
   485   00050C                     fputs@fp:
   486                           	callstack 0
   487                           
   488                           ; 2 bytes @ 0xB
   489   00050C                     	ds	1
   490   00050D                     ___fladd@signs:
   491                           	callstack 0
   492   00050D                     ___fldiv@rem:
   493                           	callstack 0
   494                           
   495                           ; 4 bytes @ 0xC
   496   00050D                     	ds	1
   497   00050E                     ___fladd@aexp:
   498                           	callstack 0
   499   00050E                     fputs@c:
   500                           	callstack 0
   501                           
   502                           ; 1 bytes @ 0xD
   503   00050E                     	ds	1
   504   00050F                     ?___flmul:
   505                           	callstack 0
   506   00050F                     ___fladd@bexp:
   507                           	callstack 0
   508   00050F                     fputs@i:
   509                           	callstack 0
   510   00050F                     ___flmul@b:
   511                           	callstack 0
   512                           
   513                           ; 4 bytes @ 0xE
   514   00050F                     	ds	1
   515   000510                     ___fladd@grs:
   516                           	callstack 0
   517                           
   518                           ; 1 bytes @ 0xF
   519   000510                     	ds	1
   520   000511                     ___fldiv@sign:
   521                           	callstack 0
   522   000511                     pad@fp:
   523                           	callstack 0
   524                           
   525                           ; 2 bytes @ 0x10
   526   000511                     	ds	1
   527   000512                     ___fldiv@new_exp:
   528                           	callstack 0
   529                           
   530                           ; 2 bytes @ 0x11
   531   000512                     	ds	1
   532   000513                     pad@buf:
   533                           	callstack 0
   534   000513                     ___flmul@a:
   535                           	callstack 0
   536                           
   537                           ; 4 bytes @ 0x12
   538   000513                     	ds	1
   539   000514                     ___fldiv@grs:
   540                           	callstack 0
   541                           
   542                           ; 4 bytes @ 0x13
   543   000514                     	ds	1
   544   000515                     pad@p:
   545                           	callstack 0
   546                           
   547                           ; 2 bytes @ 0x14
   548   000515                     	ds	2
   549   000517                     ??___flmul:
   550   000517                     ??_pad:
   551                           
   552                           ; 1 bytes @ 0x16
   553   000517                     	ds	1
   554   000518                     ___fldiv@bexp:
   555                           	callstack 0
   556   000518                     pad@i:
   557                           	callstack 0
   558                           
   559                           ; 2 bytes @ 0x17
   560   000518                     	ds	1
   561   000519                     ___fldiv@aexp:
   562                           	callstack 0
   563                           
   564                           ; 1 bytes @ 0x18
   565   000519                     	ds	1
   566   00051A                     ?_floorf:
   567                           	callstack 0
   568   00051A                     pad@w:
   569                           	callstack 0
   570   00051A                     floorf@x:
   571                           	callstack 0
   572                           
   573                           ; 4 bytes @ 0x19
   574   00051A                     	ds	1
   575   00051B                     ___flmul@sign:
   576                           	callstack 0
   577                           
   578                           ; 1 bytes @ 0x1A
   579   00051B                     	ds	1
   580   00051C                     ___flmul@grs:
   581                           	callstack 0
   582                           
   583                           ; 4 bytes @ 0x1B
   584   00051C                     	ds	2
   585   00051E                     ??_floorf:
   586                           
   587                           ; 1 bytes @ 0x1D
   588   00051E                     	ds	2
   589   000520                     ___flmul@aexp:
   590                           	callstack 0
   591                           
   592                           ; 1 bytes @ 0x1F
   593   000520                     	ds	1
   594   000521                     ___flmul@bexp:
   595                           	callstack 0
   596                           
   597                           ; 1 bytes @ 0x20
   598   000521                     	ds	1
   599   000522                     ___flmul@prod:
   600                           	callstack 0
   601                           
   602                           ; 4 bytes @ 0x21
   603   000522                     	ds	2
   604   000524                     floorf@m:
   605                           	callstack 0
   606                           
   607                           ; 4 bytes @ 0x23
   608   000524                     	ds	2
   609   000526                     ___flmul@temp:
   610                           	callstack 0
   611                           
   612                           ; 2 bytes @ 0x25
   613   000526                     	ds	2
   614   000528                     ?___flsub:
   615                           	callstack 0
   616   000528                     floorf@e:
   617                           	callstack 0
   618   000528                     ___flge@ff1:
   619                           	callstack 0
   620   000528                     ___flsub@b:
   621                           	callstack 0
   622                           
   623                           ; 4 bytes @ 0x27
   624   000528                     	ds	2
   625   00052A                     floorf@u:
   626                           	callstack 0
   627                           
   628                           ; 4 bytes @ 0x29
   629   00052A                     	ds	2
   630   00052C                     ___flge@ff2:
   631                           	callstack 0
   632   00052C                     ___flsub@a:
   633                           	callstack 0
   634                           
   635                           ; 4 bytes @ 0x2B
   636   00052C                     	ds	4
   637   000530                     ??___flge:
   638                           
   639                           ; 1 bytes @ 0x2F
   640   000530                     	ds	4
   641   000534                     efgtoa@fp:
   642                           	callstack 0
   643                           
   644                           ; 2 bytes @ 0x33
   645   000534                     	ds	2
   646   000536                     efgtoa@f:
   647                           	callstack 0
   648                           
   649                           ; 4 bytes @ 0x35
   650   000536                     	ds	4
   651   00053A                     efgtoa@c:
   652                           	callstack 0
   653                           
   654                           ; 1 bytes @ 0x39
   655   00053A                     	ds	1
   656   00053B                     ??_efgtoa:
   657                           
   658                           ; 1 bytes @ 0x3A
   659   00053B                     	ds	2
   660   00053D                     ??_vfpfcnvrt:
   661                           
   662                           ; 1 bytes @ 0x3C
   663   00053D                     	ds	2
   664   00053F                     vfpfcnvrt@convarg:
   665                           	callstack 0
   666                           
   667                           ; 8 bytes @ 0x3E
   668   00053F                     	ds	8
   669   000547                     vfpfcnvrt@c:
   670                           	callstack 0
   671                           
   672                           ; 1 bytes @ 0x46
   673   000547                     	ds	1
   674   000548                     vfpfcnvrt@cp:
   675                           	callstack 0
   676                           
   677                           ; 2 bytes @ 0x47
   678   000548                     	ds	2
   679   00054A                     vfprintf@cfmt:
   680                           	callstack 0
   681                           
   682                           ; 2 bytes @ 0x49
   683   00054A                     	ds	2
   684   00054C                     sprintf@ap:
   685                           	callstack 0
   686                           
   687                           ; 2 bytes @ 0x4B
   688   00054C                     	ds	2
   689   00054E                     sprintf@f:
   690                           	callstack 0
   691                           
   692                           ; 11 bytes @ 0x4D
   693   00054E                     	ds	11
   694   000559                     ??_ADC_ISR:
   695                           
   696                           ; 1 bytes @ 0x58
   697   000559                     	ds	4
   698                           
   699 ;;
   700 ;;Main: autosize = 0, tempsize = 0, incstack = 0, save=0
   701 ;;
   702 ;; *************** function _main *****************
   703 ;; Defined at:
   704 ;;		line 29 in file "main.c"
   705 ;; Parameters:    Size  Location     Type
   706 ;;		None
   707 ;; Auto vars:     Size  Location     Type
   708 ;;		None
   709 ;; Return value:  Size  Location     Type
   710 ;;                  1    wreg      void 
   711 ;; Registers used:
   712 ;;		wreg, status,2
   713 ;; Tracked objects:
   714 ;;		On entry : 0/0
   715 ;;		On exit  : 0/0
   716 ;;		Unchanged: 0/0
   717 ;; Data sizes:     COMRAM   BANK5   BANK6   BANK7   BANK8   BANK9  BANK10  BANK11  BANK12  BANK13  BANK14  BANK15  BANK1
      +6  BANK17  BANK18  BANK19  BANK20  BANK21  BANK22  BANK23  BANK24  BANK25  BANK26  BANK27  BANK28  BANK29  BANK30  BANK3
      +1  BANK32  BANK33  BANK34  BANK35  BANK36
   718 ;;      Params:         0       0       0       0       0       0       0       0       0       0       0       0       
      +0       0       0       0       0       0       0       0       0       0       0       0       0       0       0       
      +0       0       0       0       0       0
   719 ;;      Locals:         0       0       0       0       0       0       0       0       0       0       0       0       
      +0       0       0       0       0       0       0       0       0       0       0       0       0       0       0       
      +0       0       0       0       0       0
   720 ;;      Temps:          0       0       0       0       0       0       0       0       0       0       0       0       
      +0       0       0       0       0       0       0       0       0       0       0       0       0       0       0       
      +0       0       0       0       0       0
   721 ;;      Totals:         0       0       0       0       0       0       0       0       0       0       0       0       
      +0       0       0       0       0       0       0       0       0       0       0       0       0       0       0       
      +0       0       0       0       0       0
   722 ;;Total ram usage:        0 bytes
   723 ;; Hardware stack levels required when called: 9
   724 ;; This function calls:
   725 ;;		Nothing
   726 ;; This function is called by:
   727 ;;		Startup code after reset
   728 ;; This function uses a non-reentrant model
   729 ;;
   730                           
   731                           	psect	text0
   732   0047F0                     __ptext0:
   733                           	callstack 0
   734   0047F0                     _main:
   735                           	callstack 118
   736   0047F0                     
   737                           ;main.c: 34: TRISAbits.TRISA0 = 1;
   738   0047F0  80C6               	bsf	198,0,c	;volatile
   739                           
   740                           ;main.c: 35: ANSELAbits.ANSELA0 = 1;
   741   0047F2  0104               	movlb	4	; () banked
   742   0047F4  8100               	bsf	0,0,b	;volatile
   743   0047F6                     
   744                           ; BSR set to: 4
   745                           ;main.c: 37: TRISC = 0x00;
   746   0047F6  0E00               	movlw	0
   747   0047F8  6EC8               	movwf	200,c	;volatile
   748                           
   749                           ;main.c: 38: ANSELC = 0x00;
   750   0047FA  0E00               	movlw	0
   751   0047FC  6F10               	movwf	16,b	;volatile
   752   0047FE                     
   753                           ; BSR set to: 4
   754                           ;main.c: 40: TRISFbits.TRISF0 = 0;
   755   0047FE  90CB               	bcf	203,0,c	;volatile
   756   004800                     
   757                           ; BSR set to: 4
   758                           ;main.c: 41: TRISFbits.TRISF1 = 1;
   759   004800  82CB               	bsf	203,1,c	;volatile
   760                           
   761                           ;main.c: 42: ANSELF = 0x00;
   762   004802  0E00               	movlw	0
   763   004804  6F28               	movwf	40,b	;volatile
   764                           
   765                           ;main.c: 48: ADPCHbits.PCH = 0x00;
   766   004806  0E00               	movlw	0
   767   004808  0103               	movlb	3	; () banked
   768   00480A  6FEC               	movwf	236,b	;volatile
   769                           
   770                           ;main.c: 50: ADREFbits.PREF = 0x0;
   771   00480C  0EF0               	movlw	-16
   772   00480E  17F8               	andwf	248,f,b	;volatile
   773                           
   774                           ;main.c: 51: ADREFbits.NREF = 0x0;
   775   004810  0E0F               	movlw	-241
   776   004812  17F8               	andwf	248,f,b	;volatile
   777   004814                     
   778                           ; BSR set to: 3
   779                           ;main.c: 53: ADCON0bits.CS = 1;
   780   004814  89F3               	bsf	243,4,b	;volatile
   781   004816                     
   782                           ; BSR set to: 3
   783                           ;main.c: 55: PIR1bits.ADIF = 0;
   784   004816  94AF               	bcf	175,2,c	;volatile
   785   004818                     
   786                           ; BSR set to: 3
   787                           ;main.c: 56: PIE1bits.ADIE = 1;
   788   004818  849F               	bsf	159,2,c	;volatile
   789   00481A                     
   790                           ; BSR set to: 3
   791                           ;main.c: 57: IPR1bits.ADIP = 1;
   792   00481A  8563               	bsf	99,2,b	;volatile
   793                           
   794                           ;main.c: 59: ADCON0bits.FM = 0;
   795   00481C  0EF3               	movlw	-13
   796   00481E  17F3               	andwf	243,f,b	;volatile
   797                           
   798                           ;main.c: 61: ADACTbits.ACT = 0x00;
   799   004820  0E00               	movlw	0
   800   004822  6FF9               	movwf	249,b	;volatile
   801                           
   802                           ;main.c: 63: ADACQ = 0x00FF;
   803   004824  0E00               	movlw	0
   804   004826  6FEF               	movwf	239,b	;volatile
   805   004828  69EE               	setf	238,b	;volatile
   806                           
   807                           ;main.c: 65: ADPRE = 0x00;
   808   00482A  0E00               	movlw	0
   809   00482C  6FF2               	movwf	242,b	;volatile
   810   00482E  0E00               	movlw	0
   811   004830  6FF1               	movwf	241,b	;volatile
   812   004832                     
   813                           ; BSR set to: 3
   814                           ;main.c: 71: ADCON0bits.ON = 1;
   815   004832  8FF3               	bsf	243,7,b	;volatile
   816   004834                     
   817                           ; BSR set to: 3
   818                           ;main.c: 72: ADCON0bits.CONT = 1;
   819   004834  8DF3               	bsf	243,6,b	;volatile
   820   004836                     
   821                           ; BSR set to: 3
   822                           ;main.c: 73: ADCON3bits.SOI = 0;
   823   004836  97F6               	bcf	246,3,b	;volatile
   824   004838                     
   825                           ; BSR set to: 3
   826                           ;main.c: 77: ADCON0bits.GO = 1;
   827   004838  81F3               	bsf	243,0,b	;volatile
   828                           
   829                           ;main.c: 83: U1RXPPSbits.PORT = 0x5;
   830   00483A  0102               	movlb	2	; () banked
   831   00483C  5172               	movf	114,w,b	;volatile
   832   00483E  0BC7               	andlw	-57
   833   004840  0928               	iorlw	40
   834   004842  6F72               	movwf	114,b	;volatile
   835                           
   836                           ;main.c: 84: U1RXPPSbits.PIN = 0x1;
   837   004844  5172               	movf	114,w,b	;volatile
   838   004846  0BF8               	andlw	-8
   839   004848  0901               	iorlw	1
   840   00484A  6F72               	movwf	114,b	;volatile
   841                           
   842                           ;main.c: 85: RF0PPS = 0x20;
   843   00484C  0E20               	movlw	32
   844   00484E  6F29               	movwf	41,b	;volatile
   845                           
   846                           ;main.c: 87: U1CON0bits.MODE = 0x00;
   847   004850  0EF0               	movlw	-16
   848   004852  17AB               	andwf	171,f,b	;volatile
   849                           
   850                           ;main.c: 88: U1BRG = 103;
   851   004854  0E00               	movlw	0
   852   004856  6FAF               	movwf	175,b	;volatile
   853   004858  0E67               	movlw	103
   854   00485A  6FAE               	movwf	174,b	;volatile
   855   00485C                     
   856                           ; BSR set to: 2
   857                           ;main.c: 89: U1CON0bits.BRGS = 1;
   858   00485C  8FAB               	bsf	171,7,b	;volatile
   859   00485E                     
   860                           ; BSR set to: 2
   861                           ;main.c: 90: U1CON1bits.ON = 1;
   862   00485E  8FAC               	bsf	172,7,b	;volatile
   863   004860                     
   864                           ; BSR set to: 2
   865                           ;main.c: 96: INTCON0bits.GIE = 1;
   866   004860  8ED6               	bsf	214,7,c	;volatile
   867   004862                     
   868                           ; BSR set to: 2
   869                           ;main.c: 97: INTCON0bits.GIEL = 0;
   870   004862  9CD6               	bcf	214,6,c	;volatile
   871   004864                     
   872                           ; BSR set to: 2
   873                           ;main.c: 98: INTCON0bits.IPEN = 0;
   874   004864  9AD6               	bcf	214,5,c	;volatile
   875   004866                     l68:
   876   004866  EF33  F024         	goto	l68
   877   00486A  EF81  F000         	goto	start
   878   00486E                     __end_of_main:
   879                           	callstack 0
   880                           
   881 ;; *************** function _ADC_ISR *****************
   882 ;; Defined at:
   883 ;;		line 11 in file "main.c"
   884 ;; Parameters:    Size  Location     Type
   885 ;;		None
   886 ;; Auto vars:     Size  Location     Type
   887 ;;  i               2   86[BANK5 ] int 
   888 ;;  str_out        18   64[BANK5 ] unsigned char [18]
   889 ;;  THEM            4   82[BANK5 ] float 
   890 ;; Return value:  Size  Location     Type
   891 ;;                  1    wreg      void 
   892 ;; Registers used:
   893 ;;		wreg, fsr1l, fsr1h, fsr2l, fsr2h, status,2, status,0, tblptrl, tblptrh, tblptru, prodl, prodh, cstack
   894 ;; Tracked objects:
   895 ;;		On entry : 0/0
   896 ;;		On exit  : 0/0
   897 ;;		Unchanged: 0/0
   898 ;; Data sizes:     COMRAM   BANK5   BANK6   BANK7   BANK8   BANK9  BANK10  BANK11  BANK12  BANK13  BANK14  BANK15  BANK1
      +6  BANK17  BANK18  BANK19  BANK20  BANK21  BANK22  BANK23  BANK24  BANK25  BANK26  BANK27  BANK28  BANK29  BANK30  BANK3
      +1  BANK32  BANK33  BANK34  BANK35  BANK36
   899 ;;      Params:         0       0       0       0       0       0       0       0       0       0       0       0       
      +0       0       0       0       0       0       0       0       0       0       0       0       0       0       0       
      +0       0       0       0       0       0
   900 ;;      Locals:         0      24       0       0       0       0       0       0       0       0       0       0       
      +0       0       0       0       0       0       0       0       0       0       0       0       0       0       0       
      +0       0       0       0       0       0
   901 ;;      Temps:          4       0       0       0       0       0       0       0       0       0       0       0       
      +0       0       0       0       0       0       0       0       0       0       0       0       0       0       0       
      +0       0       0       0       0       0
   902 ;;      Totals:         4      24       0       0       0       0       0       0       0       0       0       0       
      +0       0       0       0       0       0       0       0       0       0       0       0       0       0       0       
      +0       0       0       0       0       0
   903 ;;Total ram usage:       28 bytes
   904 ;; Hardware stack levels used: 1
   905 ;; Hardware stack levels required when called: 8
   906 ;; This function calls:
   907 ;;		___flmul
   908 ;;		___xxtofl
   909 ;;		_sprintf
   910 ;; This function is called by:
   911 ;;		Interrupt level 2
   912 ;; This function uses a non-reentrant model
   913 ;;
   914                           
   915                           	psect	text1
   916   004598                     __ptext1:
   917                           	callstack 0
   918   004598                     _ADC_ISR:
   919                           	callstack 118
   920                           
   921                           ;incstack = 0
   922   004598  C4F6 F559          	movff	tblptrl,??_ADC_ISR
   923   00459C  C4F7 F55A          	movff	tblptrh,??_ADC_ISR+1
   924   0045A0  C4F8 F55B          	movff	tblptru,??_ADC_ISR+2
   925   0045A4  C4F5 F55C          	movff	tablat,??_ADC_ISR+3
   926   0045A8                     
   927                           ;main.c: 12:     LATC = ADRESH;
   928   0045A8  C3EB F4C0          	movff	1003,1216	;volatile
   929   0045AC                     
   930                           ;main.c: 13:     float THEM = ADRESH * (float) 0.01289;
   931   0045AC  0103               	movlb	3	; () banked
   932   0045AE  51EB               	movf	235,w,b	;volatile
   933   0045B0  6E01               	movwf	___xxtofl@val^(0+1280),c
   934   0045B2  6A02               	clrf	(___xxtofl@val+1)^(0+1280),c
   935   0045B4  6A03               	clrf	(___xxtofl@val+2)^(0+1280),c
   936   0045B6  6A04               	clrf	(___xxtofl@val+3)^(0+1280),c
   937   0045B8  0E01               	movlw	1
   938   0045BA  EC6D  F020         	call	___xxtofl
   939   0045BE  C501  F50F         	movff	?___xxtofl,___flmul@b
   940   0045C2  C502  F510         	movff	?___xxtofl+1,___flmul@b+1
   941   0045C6  C503  F511         	movff	?___xxtofl+2,___flmul@b+2
   942   0045CA  C504  F512         	movff	?___xxtofl+3,___flmul@b+3
   943   0045CE  0E94               	movlw	148
   944   0045D0  6E13               	movwf	___flmul@a^(0+1280),c
   945   0045D2  0E30               	movlw	48
   946   0045D4  6E14               	movwf	(___flmul@a+1)^(0+1280),c
   947   0045D6  0E53               	movlw	83
   948   0045D8  6E15               	movwf	(___flmul@a+2)^(0+1280),c
   949   0045DA  0E3C               	movlw	60
   950   0045DC  6E16               	movwf	(___flmul@a+3)^(0+1280),c
   951   0045DE  EC6A  F01A         	call	___flmul	;wreg free
   952   0045E2  C50F  F5B2         	movff	?___flmul,ADC_ISR@THEM
   953   0045E6  C510  F5B3         	movff	?___flmul+1,ADC_ISR@THEM+1
   954   0045EA  C511  F5B4         	movff	?___flmul+2,ADC_ISR@THEM+2
   955   0045EE  C512  F5B5         	movff	?___flmul+3,ADC_ISR@THEM+3
   956   0045F2                     
   957                           ;main.c: 15:     char str_out[18];;main.c: 16:     sprintf(str_out, "\r\nVoltaje: %f", T
      +                          HEM);
   958   0045F2  0EA0               	movlw	low ADC_ISR@str_out
   959   0045F4  0105               	movlb	5	; () banked
   960   0045F6  6F98               	movwf	sprintf@s& (0+255),b
   961   0045F8  0E05               	movlw	high ADC_ISR@str_out
   962   0045FA  6F99               	movwf	(sprintf@s+1)& (0+255),b
   963   0045FC  0E01               	movlw	low STR_1
   964   0045FE  6F9A               	movwf	sprintf@fmt& (0+255),b
   965   004600  0E26               	movlw	high STR_1
   966   004602  6F9B               	movwf	(sprintf@fmt+1)& (0+255),b
   967   004604  C5B2  F59C         	movff	ADC_ISR@THEM,?_sprintf+4
   968   004608  C5B3  F59D         	movff	ADC_ISR@THEM+1,?_sprintf+5
   969   00460C  C5B4  F59E         	movff	ADC_ISR@THEM+2,?_sprintf+6
   970   004610  C5B5  F59F         	movff	ADC_ISR@THEM+3,?_sprintf+7
   971   004614  ECD2  F024         	call	_sprintf	;wreg free
   972   004618                     
   973                           ;main.c: 18:     U1CON0bits.TXEN = 1;
   974   004618  0102               	movlb	2	; () banked
   975   00461A  8BAB               	bsf	171,5,b	;volatile
   976   00461C                     
   977                           ; BSR set to: 2
   978                           ;main.c: 19:     for (int i=0; i<18; i++){
   979   00461C  0E00               	movlw	0
   980   00461E  0105               	movlb	5	; () banked
   981   004620  6FB7               	movwf	(ADC_ISR@i+1)& (0+255),b
   982   004622  0E00               	movlw	0
   983   004624  6FB6               	movwf	ADC_ISR@i& (0+255),b
   984   004626                     i2l3168:
   985                           
   986                           ; BSR set to: 5
   987                           ;main.c: 20:         U1TXB = str_out[i];
   988   004626  0EA0               	movlw	low ADC_ISR@str_out
   989   004628  25B6               	addwf	ADC_ISR@i& (0+255),w,b
   990   00462A  6ED9               	movwf	fsr2l,c
   991   00462C  0E05               	movlw	high ADC_ISR@str_out
   992   00462E  21B7               	addwfc	(ADC_ISR@i+1)& (0+255),w,b
   993   004630  6EDA               	movwf	fsr2h,c
   994   004632  50DF               	movf	indf2,w,c
   995   004634  0102               	movlb	2	; () banked
   996   004636  6FA3               	movwf	163,b	;volatile
   997   004638                     
   998                           ; BSR set to: 2
   999                           ;main.c: 21:         _delay((unsigned long)((1)*(4000000/4000.0)));
  1000   004638  0EC8               	movlw	200
  1001   00463A                     i2u341_47:
  1002   00463A  D000               	nop2	
  1003   00463C  2EE8               	decfsz	wreg,f,c
  1004   00463E  D7FD               	bra	i2u341_47
  1005   004640                     
  1006                           ;main.c: 22:     }
  1007   004640  0105               	movlb	5	; () banked
  1008   004642  4BB6               	infsnz	ADC_ISR@i& (0+255),f,b
  1009   004644  2BB7               	incf	(ADC_ISR@i+1)& (0+255),f,b
  1010   004646                     
  1011                           ; BSR set to: 5
  1012   004646  BFB7               	btfsc	(ADC_ISR@i+1)& (0+255),7,b
  1013   004648  EF2F  F023         	goto	i2u340_41
  1014   00464C  51B7               	movf	(ADC_ISR@i+1)& (0+255),w,b
  1015   00464E  E109               	bnz	i2u340_40
  1016   004650  0E12               	movlw	18
  1017   004652  5DB6               	subwf	ADC_ISR@i& (0+255),w,b
  1018   004654  A0D8               	btfss	status,0,c
  1019   004656  EF2F  F023         	goto	i2u340_41
  1020   00465A  EF31  F023         	goto	i2u340_40
  1021   00465E                     i2u340_41:
  1022   00465E  EF13  F023         	goto	i2l3168
  1023   004662                     i2u340_40:
  1024   004662                     
  1025                           ; BSR set to: 5
  1026                           ;main.c: 23:     U1CON0bits.TXEN = 0;
  1027   004662  0102               	movlb	2	; () banked
  1028   004664  9BAB               	bcf	171,5,b	;volatile
  1029                           
  1030                           ;main.c: 24:     U1FIFObits.TXBE = 1;
  1031   004666  8BB0               	bsf	176,5,b	;volatile
  1032                           
  1033                           ;main.c: 26:     PIR1bits.ADIF = 0;
  1034   004668  94AF               	bcf	175,2,c	;volatile
  1035   00466A                     
  1036                           ; BSR set to: 2
  1037   00466A  C55C  F4F5         	movff	??_ADC_ISR+3,tablat
  1038   00466E  C55B  F4F8         	movff	??_ADC_ISR+2,tblptru
  1039   004672  C55A  F4F7         	movff	??_ADC_ISR+1,tblptrh
  1040   004676  C559  F4F6         	movff	??_ADC_ISR,tblptrl
  1041   00467A  0011               	retfie		f
  1042   00467C                     __end_of_ADC_ISR:
  1043                           	callstack 0
  1044                           
  1045 ;; *************** function _sprintf *****************
  1046 ;; Defined at:
  1047 ;;		line 9 in file "C:\Program Files\Microchip\xc8\v2.40\pic\sources\c99\common\nf_sprintf.c"
  1048 ;; Parameters:    Size  Location     Type
  1049 ;;  s               2   56[BANK5 ] PTR unsigned char 
  1050 ;;		 -> ADC_ISR@str_out(18), 
  1051 ;;  fmt             2   58[BANK5 ] PTR const unsigned char 
  1052 ;;		 -> STR_1(14), 
  1053 ;; Auto vars:     Size  Location     Type
  1054 ;;  f              11   77[COMRAM] struct _IO_FILE
  1055 ;;  ap              2   75[COMRAM] PTR void [1]
  1056 ;;		 -> ?_sprintf(2), 
  1057 ;;  ret             2    0        int 
  1058 ;; Return value:  Size  Location     Type
  1059 ;;                  2   56[BANK5 ] int 
  1060 ;; Registers used:
  1061 ;;		wreg, fsr1l, fsr1h, fsr2l, fsr2h, status,2, status,0, tblptrl, tblptrh, tblptru, prodl, prodh, cstack
  1062 ;; Tracked objects:
  1063 ;;		On entry : 0/0
  1064 ;;		On exit  : 0/0
  1065 ;;		Unchanged: 0/0
  1066 ;; Data sizes:     COMRAM   BANK5   BANK6   BANK7   BANK8   BANK9  BANK10  BANK11  BANK12  BANK13  BANK14  BANK15  BANK1
      +6  BANK17  BANK18  BANK19  BANK20  BANK21  BANK22  BANK23  BANK24  BANK25  BANK26  BANK27  BANK28  BANK29  BANK30  BANK3
      +1  BANK32  BANK33  BANK34  BANK35  BANK36
  1067 ;;      Params:         0       8       0       0       0       0       0       0       0       0       0       0       
      +0       0       0       0       0       0       0       0       0       0       0       0       0       0       0       
      +0       0       0       0       0       0
  1068 ;;      Locals:        13       0       0       0       0       0       0       0       0       0       0       0       
      +0       0       0       0       0       0       0       0       0       0       0       0       0       0       0       
      +0       0       0       0       0       0
  1069 ;;      Temps:          0       0       0       0       0       0       0       0       0       0       0       0       
      +0       0       0       0       0       0       0       0       0       0       0       0       0       0       0       
      +0       0       0       0       0       0
  1070 ;;      Totals:        13       8       0       0       0       0       0       0       0       0       0       0       
      +0       0       0       0       0       0       0       0       0       0       0       0       0       0       0       
      +0       0       0       0       0       0
  1071 ;;Total ram usage:       21 bytes
  1072 ;; Hardware stack levels used: 1
  1073 ;; Hardware stack levels required when called: 7
  1074 ;; This function calls:
  1075 ;;		_vfprintf
  1076 ;; This function is called by:
  1077 ;;		_ADC_ISR
  1078 ;; This function uses a non-reentrant model
  1079 ;;
  1080                           
  1081                           	psect	text2
  1082   0049A4                     __ptext2:
  1083                           	callstack 0
  1084   0049A4                     _sprintf:
  1085                           	callstack 118
  1086   0049A4  0E9C               	movlw	low (?_sprintf+4)
  1087   0049A6  6E4C               	movwf	sprintf@ap^(0+1280),c
  1088   0049A8  0E05               	movlw	high (?_sprintf+4)
  1089   0049AA  6E4D               	movwf	(sprintf@ap+1)^(0+1280),c
  1090   0049AC  C598  F54E         	movff	sprintf@s,sprintf@f
  1091   0049B0  C599  F54F         	movff	sprintf@s+1,sprintf@f+1
  1092   0049B4  0E00               	movlw	0
  1093   0049B6  6E52               	movwf	(sprintf@f+4)^(0+1280),c
  1094   0049B8  0E00               	movlw	0
  1095   0049BA  6E51               	movwf	(sprintf@f+3)^(0+1280),c
  1096   0049BC  0E00               	movlw	0
  1097   0049BE  6E58               	movwf	(sprintf@f+10)^(0+1280),c
  1098   0049C0  0E00               	movlw	0
  1099   0049C2  6E57               	movwf	(sprintf@f+9)^(0+1280),c
  1100   0049C4  0E4E               	movlw	low sprintf@f
  1101   0049C6  0105               	movlb	5	; () banked
  1102   0049C8  6F92               	movwf	vfprintf@fp& (0+255),b
  1103   0049CA  0E05               	movlw	high sprintf@f
  1104   0049CC  6F93               	movwf	(vfprintf@fp+1)& (0+255),b
  1105   0049CE  C59A  F594         	movff	sprintf@fmt,vfprintf@fmt
  1106   0049D2  C59B  F595         	movff	sprintf@fmt+1,vfprintf@fmt+1
  1107   0049D6  0E4C               	movlw	low sprintf@ap
  1108   0049D8  6F96               	movwf	vfprintf@ap& (0+255),b
  1109   0049DA  0E05               	movlw	high sprintf@ap
  1110   0049DC  6F97               	movwf	(vfprintf@ap+1)& (0+255),b
  1111   0049DE  ECA7  F024         	call	_vfprintf	;wreg free
  1112   0049E2  5051               	movf	(sprintf@f+3)^(0+1280),w,c
  1113   0049E4  0105               	movlb	5	; () banked
  1114   0049E6  2598               	addwf	sprintf@s& (0+255),w,b
  1115   0049E8  6ED9               	movwf	fsr2l,c
  1116   0049EA  5052               	movf	(sprintf@f+4)^(0+1280),w,c
  1117   0049EC  2199               	addwfc	(sprintf@s+1)& (0+255),w,b
  1118   0049EE  6EDA               	movwf	fsr2h,c
  1119   0049F0  0E00               	movlw	0
  1120   0049F2  6EDF               	movwf	indf2,c
  1121   0049F4                     
  1122                           ; BSR set to: 5
  1123   0049F4  0012               	return		;funcret
  1124   0049F6                     __end_of_sprintf:
  1125                           	callstack 0
  1126                           
  1127 ;; *************** function _vfprintf *****************
  1128 ;; Defined at:
  1129 ;;		line 1520 in file "C:\Program Files\Microchip\xc8\v2.40\pic\sources\c99\common\doprnt.c"
  1130 ;; Parameters:    Size  Location     Type
  1131 ;;  fp              2   50[BANK5 ] PTR struct _IO_FILE
  1132 ;;		 -> sprintf@f(11), 
  1133 ;;  fmt             2   52[BANK5 ] PTR const unsigned char 
  1134 ;;		 -> STR_1(14), 
  1135 ;;  ap              2   54[BANK5 ] PTR PTR void 
  1136 ;;		 -> sprintf@ap(2), 
  1137 ;; Auto vars:     Size  Location     Type
  1138 ;;  cfmt            2   73[COMRAM] PTR unsigned char 
  1139 ;;		 -> STR_1(14), 
  1140 ;; Return value:  Size  Location     Type
  1141 ;;                  2   50[BANK5 ] int 
  1142 ;; Registers used:
  1143 ;;		wreg, fsr1l, fsr1h, fsr2l, fsr2h, status,2, status,0, tblptrl, tblptrh, tblptru, prodl, prodh, cstack
  1144 ;; Tracked objects:
  1145 ;;		On entry : 0/0
  1146 ;;		On exit  : 0/0
  1147 ;;		Unchanged: 0/0
  1148 ;; Data sizes:     COMRAM   BANK5   BANK6   BANK7   BANK8   BANK9  BANK10  BANK11  BANK12  BANK13  BANK14  BANK15  BANK1
      +6  BANK17  BANK18  BANK19  BANK20  BANK21  BANK22  BANK23  BANK24  BANK25  BANK26  BANK27  BANK28  BANK29  BANK30  BANK3
      +1  BANK32  BANK33  BANK34  BANK35  BANK36
  1149 ;;      Params:         0       6       0       0       0       0       0       0       0       0       0       0       
      +0       0       0       0       0       0       0       0       0       0       0       0       0       0       0       
      +0       0       0       0       0       0
  1150 ;;      Locals:         2       0       0       0       0       0       0       0       0       0       0       0       
      +0       0       0       0       0       0       0       0       0       0       0       0       0       0       0       
      +0       0       0       0       0       0
  1151 ;;      Temps:          0       0       0       0       0       0       0       0       0       0       0       0       
      +0       0       0       0       0       0       0       0       0       0       0       0       0       0       0       
      +0       0       0       0       0       0
  1152 ;;      Totals:         2       6       0       0       0       0       0       0       0       0       0       0       
      +0       0       0       0       0       0       0       0       0       0       0       0       0       0       0       
      +0       0       0       0       0       0
  1153 ;;Total ram usage:        8 bytes
  1154 ;; Hardware stack levels used: 1
  1155 ;; Hardware stack levels required when called: 6
  1156 ;; This function calls:
  1157 ;;		_vfpfcnvrt
  1158 ;; This function is called by:
  1159 ;;		_sprintf
  1160 ;; This function uses a non-reentrant model
  1161 ;;
  1162                           
  1163                           	psect	text3
  1164   00494E                     __ptext3:
  1165                           	callstack 0
  1166   00494E                     _vfprintf:
  1167                           	callstack 118
  1168   00494E                     
  1169                           ;C:\Program Files\Microchip\xc8\v2.40\pic\sources\c99\common\doprnt.c: 1520: int vfprint
      +                          f(FILE *fp, const char *fmt, va_list ap);C:\Program Files\Microchip\xc8\v2.40\pic\source
      +                          s\c99\common\doprnt.c: 1521: {;C:\Program Files\Microchip\xc8\v2.40\pic\sources\c99\comm
      +                          on\doprnt.c: 1523:     char *cfmt;;C:\Program Files\Microchip\xc8\v2.40\pic\sources\c99\
      +                          common\doprnt.c: 1525:     cfmt = (char *)fmt;
  1170   00494E  C594  F54A         	movff	vfprintf@fmt,vfprintf@cfmt
  1171   004952  C595  F54B         	movff	vfprintf@fmt+1,vfprintf@cfmt+1
  1172                           
  1173                           ;C:\Program Files\Microchip\xc8\v2.40\pic\sources\c99\common\doprnt.c: 1529:     while (
      +                          *cfmt) {
  1174   004956  EFBC  F024         	goto	i2l3090
  1175   00495A                     i2l3088:
  1176                           
  1177                           ;C:\Program Files\Microchip\xc8\v2.40\pic\sources\c99\common\doprnt.c: 1533:    vfpfcnvr
      +                          t(fp, &cfmt, ap);
  1178   00495A  C592  F58C         	movff	vfprintf@fp,vfpfcnvrt@fp
  1179   00495E  C593  F58D         	movff	vfprintf@fp+1,vfpfcnvrt@fp+1
  1180   004962  0E4A               	movlw	low vfprintf@cfmt
  1181   004964  0105               	movlb	5	; () banked
  1182   004966  6F8E               	movwf	vfpfcnvrt@fmt& (0+255),b
  1183   004968  0E05               	movlw	high vfprintf@cfmt
  1184   00496A  6F8F               	movwf	(vfpfcnvrt@fmt+1)& (0+255),b
  1185   00496C  C596  F590         	movff	vfprintf@ap,vfpfcnvrt@ap
  1186   004970  C597  F591         	movff	vfprintf@ap+1,vfpfcnvrt@ap+1
  1187   004974  EC4C  F01E         	call	_vfpfcnvrt	;wreg free
  1188   004978                     i2l3090:
  1189                           
  1190                           ;C:\Program Files\Microchip\xc8\v2.40\pic\sources\c99\common\doprnt.c: 1529:     while (
      +                          *cfmt) {
  1191   004978  C54A  F4F6         	movff	vfprintf@cfmt,tblptrl
  1192   00497C  C54B  F4F7         	movff	vfprintf@cfmt+1,tblptrh
  1193   004980                     	if	0	;tblptru may be non-zero
  1194   004980                     	endif
  1195   004980                     	if	1	;Program memory is > 0xFFFF, there are 3 active tblptr bytes
  1196   004980  0E00               	movlw	low (__mediumconst shr (0+16))
  1197   004982  6EF8               	movwf	tblptru,c
  1198   004984                     	endif
  1199   004984  0008               	tblrd		*
  1200   004986  50F5               	movf	tablat,w,c
  1201   004988  0900               	iorlw	0
  1202   00498A  A4D8               	btfss	status,2,c
  1203   00498C  EFCA  F024         	goto	i2u329_41
  1204   004990  EFCC  F024         	goto	i2u329_40
  1205   004994                     i2u329_41:
  1206   004994  EFAD  F024         	goto	i2l3088
  1207   004998                     i2u329_40:
  1208   004998                     
  1209                           ;C:\Program Files\Microchip\xc8\v2.40\pic\sources\c99\common\doprnt.c: 1538:  return 0;
  1210   004998  0E00               	movlw	0
  1211   00499A  0105               	movlb	5	; () banked
  1212   00499C  6F93               	movwf	(?_vfprintf+1)& (0+255),b
  1213   00499E  0E00               	movlw	0
  1214   0049A0  6F92               	movwf	?_vfprintf& (0+255),b
  1215   0049A2                     
  1216                           ; BSR set to: 5
  1217   0049A2  0012               	return		;funcret
  1218   0049A4                     __end_of_vfprintf:
  1219                           	callstack 0
  1220                           
  1221 ;; *************** function _vfpfcnvrt *****************
  1222 ;; Defined at:
  1223 ;;		line 1007 in file "C:\Program Files\Microchip\xc8\v2.40\pic\sources\c99\common\doprnt.c"
  1224 ;; Parameters:    Size  Location     Type
  1225 ;;  fp              2   44[BANK5 ] PTR struct _IO_FILE
  1226 ;;		 -> sprintf@f(11), 
  1227 ;;  fmt             2   46[BANK5 ] PTR PTR unsigned char 
  1228 ;;		 -> vfprintf@cfmt(2), 
  1229 ;;  ap              2   48[BANK5 ] PTR PTR void 
  1230 ;;		 -> sprintf@ap(2), 
  1231 ;; Auto vars:     Size  Location     Type
  1232 ;;  convarg         8   62[COMRAM] struct .
  1233 ;;  cp              2   71[COMRAM] PTR unsigned char 
  1234 ;;		 -> STR_1(14), 
  1235 ;;  i               2    0        int 
  1236 ;;  done            2    0        int 
  1237 ;;  c               1   70[COMRAM] unsigned char 
  1238 ;; Return value:  Size  Location     Type
  1239 ;;                  1    wreg      void 
  1240 ;; Registers used:
  1241 ;;		wreg, fsr1l, fsr1h, fsr2l, fsr2h, status,2, status,0, tblptrl, tblptrh, tblptru, prodl, prodh, cstack
  1242 ;; Tracked objects:
  1243 ;;		On entry : 0/0
  1244 ;;		On exit  : 0/0
  1245 ;;		Unchanged: 0/0
  1246 ;; Data sizes:     COMRAM   BANK5   BANK6   BANK7   BANK8   BANK9  BANK10  BANK11  BANK12  BANK13  BANK14  BANK15  BANK1
      +6  BANK17  BANK18  BANK19  BANK20  BANK21  BANK22  BANK23  BANK24  BANK25  BANK26  BANK27  BANK28  BANK29  BANK30  BANK3
      +1  BANK32  BANK33  BANK34  BANK35  BANK36
  1247 ;;      Params:         0       6       0       0       0       0       0       0       0       0       0       0       
      +0       0       0       0       0       0       0       0       0       0       0       0       0       0       0       
      +0       0       0       0       0       0
  1248 ;;      Locals:        11       0       0       0       0       0       0       0       0       0       0       0       
      +0       0       0       0       0       0       0       0       0       0       0       0       0       0       0       
      +0       0       0       0       0       0
  1249 ;;      Temps:          2       0       0       0       0       0       0       0       0       0       0       0       
      +0       0       0       0       0       0       0       0       0       0       0       0       0       0       0       
      +0       0       0       0       0       0
  1250 ;;      Totals:        13       6       0       0       0       0       0       0       0       0       0       0       
      +0       0       0       0       0       0       0       0       0       0       0       0       0       0       0       
      +0       0       0       0       0       0
  1251 ;;Total ram usage:       19 bytes
  1252 ;; Hardware stack levels used: 1
  1253 ;; Hardware stack levels required when called: 5
  1254 ;; This function calls:
  1255 ;;		_efgtoa
  1256 ;;		_fputc
  1257 ;; This function is called by:
  1258 ;;		_vfprintf
  1259 ;; This function uses a non-reentrant model
  1260 ;;
  1261                           
  1262                           	psect	text4
  1263   003C98                     __ptext4:
  1264                           	callstack 0
  1265   003C98                     _vfpfcnvrt:
  1266                           	callstack 118
  1267   003C98                     
  1268                           ;C:\Program Files\Microchip\xc8\v2.40\pic\sources\c99\common\doprnt.c: 1007: vfpfcnvrt(F
      +                          ILE *fp, char *fmt[], va_list ap);C:\Program Files\Microchip\xc8\v2.40\pic\sources\c99\c
      +                          ommon\doprnt.c: 1008: {;C:\Program Files\Microchip\xc8\v2.40\pic\sources\c99\common\dopr
      +                          nt.c: 1009:     char c, *cp;;C:\Program Files\Microchip\xc8\v2.40\pic\sources\c99\common
      +                          \doprnt.c: 1010:     int done, i;;C:\Program Files\Microchip\xc8\v2.40\pic\sources\c99\c
      +                          ommon\doprnt.c: 1016:  } convarg;;C:\Program Files\Microchip\xc8\v2.40\pic\sources\c99\c
      +                          ommon\doprnt.c: 1019:     if ((*fmt)[0] == '%') {
  1269   003C98  C58E  F4D9         	movff	vfpfcnvrt@fmt,fsr2l
  1270   003C9C  C58F  F4DA         	movff	vfpfcnvrt@fmt+1,fsr2h
  1271   003CA0  C4DE F4F6          	movff	postinc2,tblptrl
  1272   003CA4  C4DD F4F7          	movff	postdec2,tblptrh
  1273   003CA8                     	if	0	;tblptru may be non-zero
  1274   003CA8                     	endif
  1275   003CA8                     	if	1	;Program memory is > 0xFFFF, there are 3 active tblptr bytes
  1276   003CA8  0E00               	movlw	low (__mediumconst shr (0+16))
  1277   003CAA  6EF8               	movwf	tblptru,c
  1278   003CAC                     	endif
  1279   003CAC  0008               	tblrd		*
  1280   003CAE  50F5               	movf	tablat,w,c
  1281   003CB0  0A25               	xorlw	37
  1282   003CB2  A4D8               	btfss	status,2,c
  1283   003CB4  EF5E  F01E         	goto	i2u327_41
  1284   003CB8  EF60  F01E         	goto	i2u327_40
  1285   003CBC                     i2u327_41:
  1286   003CBC  EF4D  F01F         	goto	i2l3050
  1287   003CC0                     i2u327_40:
  1288   003CC0                     
  1289                           ;C:\Program Files\Microchip\xc8\v2.40\pic\sources\c99\common\doprnt.c: 1020:         ++*
      +                          fmt;
  1290   003CC0  C58E  F4D9         	movff	vfpfcnvrt@fmt,fsr2l
  1291   003CC4  C58F  F4DA         	movff	vfpfcnvrt@fmt+1,fsr2h
  1292   003CC8  2ADE               	incf	postinc2,f,c
  1293   003CCA  0E00               	movlw	0
  1294   003CCC  22DD               	addwfc	postdec2,f,c
  1295   003CCE                     
  1296                           ;C:\Program Files\Microchip\xc8\v2.40\pic\sources\c99\common\doprnt.c: 1022:         fla
      +                          gs = width = 0;
  1297   003CCE  0E00               	movlw	0
  1298   003CD0  0105               	movlb	5	; () banked
  1299   003CD2  6FC1               	movwf	(_width+1)& (0+255),b
  1300   003CD4  0E00               	movlw	0
  1301   003CD6  6FC0               	movwf	_width& (0+255),b
  1302   003CD8  C5C0  F5C2         	movff	_width,_flags
  1303   003CDC                     
  1304                           ; BSR set to: 5
  1305                           ;C:\Program Files\Microchip\xc8\v2.40\pic\sources\c99\common\doprnt.c: 1023:         pre
      +                          c = -1;
  1306   003CDC  685D               	setf	_prec^(0+1280),c
  1307   003CDE  685E               	setf	(_prec+1)^(0+1280),c
  1308   003CE0                     
  1309                           ; BSR set to: 5
  1310                           ;C:\Program Files\Microchip\xc8\v2.40\pic\sources\c99\common\doprnt.c: 1392:   cp = *fmt
      +                          ;
  1311   003CE0  C58E  F4D9         	movff	vfpfcnvrt@fmt,fsr2l
  1312   003CE4  C58F  F4DA         	movff	vfpfcnvrt@fmt+1,fsr2h
  1313   003CE8  C4DE F548          	movff	postinc2,vfpfcnvrt@cp
  1314   003CEC  C4DD F549          	movff	postdec2,vfpfcnvrt@cp+1
  1315   003CF0                     
  1316                           ; BSR set to: 5
  1317                           ;C:\Program Files\Microchip\xc8\v2.40\pic\sources\c99\common\doprnt.c: 1393:   c = *cp;
  1318   003CF0  C548  F4F6         	movff	vfpfcnvrt@cp,tblptrl
  1319   003CF4  C549  F4F7         	movff	vfpfcnvrt@cp+1,tblptrh
  1320   003CF8                     	if	0	;tblptru may be non-zero
  1321   003CF8                     	endif
  1322   003CF8                     	if	1	;Program memory is > 0xFFFF, there are 3 active tblptr bytes
  1323   003CF8  0E00               	movlw	low (__mediumconst shr (0+16))
  1324   003CFA  6EF8               	movwf	tblptru,c
  1325   003CFC                     	endif
  1326   003CFC  0008               	tblrd		*
  1327   003CFE  C4F5 F547          	movff	tablat,vfpfcnvrt@c
  1328                           
  1329                           ;C:\Program Files\Microchip\xc8\v2.40\pic\sources\c99\common\doprnt.c: 1394:   switch(c)
      +                           {
  1330   003D02  EF8F  F01E         	goto	i2l3024
  1331   003D06                     i2l3016:
  1332                           
  1333                           ; BSR set to: 5
  1334                           ;C:\Program Files\Microchip\xc8\v2.40\pic\sources\c99\common\doprnt.c: 1398:     cp++;
  1335   003D06  4A48               	infsnz	vfpfcnvrt@cp^(0+1280),f,c
  1336   003D08  2A49               	incf	(vfpfcnvrt@cp+1)^(0+1280),f,c
  1337                           
  1338                           ;C:\Program Files\Microchip\xc8\v2.40\pic\sources\c99\common\doprnt.c: 1399:     break;
  1339   003D0A  EFA8  F01E         	goto	i2l3026
  1340   003D0E                     i2l3018:
  1341                           
  1342                           ; BSR set to: 5
  1343                           ;C:\Program Files\Microchip\xc8\v2.40\pic\sources\c99\common\doprnt.c: 1424:     c = 'l'
      +                          ;
  1344   003D0E  0E6C               	movlw	108
  1345   003D10  6E47               	movwf	vfpfcnvrt@c^(0+1280),c
  1346                           
  1347                           ;C:\Program Files\Microchip\xc8\v2.40\pic\sources\c99\common\doprnt.c: 1425:     break;
  1348   003D12  EFA8  F01E         	goto	i2l3026
  1349   003D16                     i2l3020:
  1350                           
  1351                           ; BSR set to: 5
  1352                           ;C:\Program Files\Microchip\xc8\v2.40\pic\sources\c99\common\doprnt.c: 1427:     c = 0;
  1353   003D16  0E00               	movlw	0
  1354   003D18  6E47               	movwf	vfpfcnvrt@c^(0+1280),c
  1355                           
  1356                           ;C:\Program Files\Microchip\xc8\v2.40\pic\sources\c99\common\doprnt.c: 1428:     break;
  1357   003D1A  EFA8  F01E         	goto	i2l3026
  1358   003D1E                     i2l3024:
  1359                           
  1360                           ; BSR set to: 5
  1361   003D1E  5047               	movf	vfpfcnvrt@c^(0+1280),w,c
  1362   003D20  6E3D               	movwf	??_vfpfcnvrt^(0+1280),c
  1363   003D22  6A3E               	clrf	(??_vfpfcnvrt+1)^(0+1280),c
  1364                           
  1365                           ; Switch on 2 bytes has been partitioned into a top level switch of size 1, and 1 sub-sw
      +                          itches
  1366                           ; Switch size 1, requested type "simple"
  1367                           ; Number of cases is 1, Range of values is 0 to 0
  1368                           ; switch strategies available:
  1369                           ; Name         Instructions Cycles
  1370                           ; simple_byte            4     3 (average)
  1371                           ;	Chosen strategy is simple_byte
  1372   003D24  503E               	movf	(??_vfpfcnvrt+1)^(0+1280),w,c
  1373   003D26  0A00               	xorlw	0	; case 0
  1374   003D28  B4D8               	btfsc	status,2,c
  1375   003D2A  EF99  F01E         	goto	i2l3360
  1376   003D2E  EF8B  F01E         	goto	i2l3020
  1377   003D32                     i2l3360:
  1378                           
  1379                           ; BSR set to: 5
  1380                           ; Switch size 1, requested type "simple"
  1381                           ; Number of cases is 3, Range of values is 76 to 108
  1382                           ; switch strategies available:
  1383                           ; Name         Instructions Cycles
  1384                           ; simple_byte           10     6 (average)
  1385                           ;	Chosen strategy is simple_byte
  1386   003D32  503D               	movf	??_vfpfcnvrt^(0+1280),w,c
  1387   003D34  0A4C               	xorlw	76	; case 76
  1388   003D36  B4D8               	btfsc	status,2,c
  1389   003D38  EF83  F01E         	goto	i2l3016
  1390   003D3C  0A2A               	xorlw	42	; case 102
  1391   003D3E  B4D8               	btfsc	status,2,c
  1392   003D40  EF87  F01E         	goto	i2l3018
  1393   003D44  0A0A               	xorlw	10	; case 108
  1394   003D46  B4D8               	btfsc	status,2,c
  1395   003D48  EF83  F01E         	goto	i2l3016
  1396   003D4C  EF8B  F01E         	goto	i2l3020
  1397   003D50                     i2l3026:
  1398                           
  1399                           ; BSR set to: 5
  1400   003D50  C548  F4F6         	movff	vfpfcnvrt@cp,tblptrl
  1401   003D54  C549  F4F7         	movff	vfpfcnvrt@cp+1,tblptrh
  1402   003D58                     	if	0	;tblptru may be non-zero
  1403   003D58                     	endif
  1404   003D58                     	if	1	;Program memory is > 0xFFFF, there are 3 active tblptr bytes
  1405   003D58  0E00               	movlw	low (__mediumconst shr (0+16))
  1406   003D5A  6EF8               	movwf	tblptru,c
  1407   003D5C                     	endif
  1408   003D5C  0008               	tblrd		*
  1409   003D5E  50F5               	movf	tablat,w,c
  1410   003D60  0A66               	xorlw	102
  1411   003D62  A4D8               	btfss	status,2,c
  1412   003D64  EFB6  F01E         	goto	i2u328_41
  1413   003D68  EFB8  F01E         	goto	i2u328_40
  1414   003D6C                     i2u328_41:
  1415   003D6C  EF44  F01F         	goto	i2l3046
  1416   003D70                     i2u328_40:
  1417   003D70  EFEE  F01E         	goto	i2l3034
  1418   003D74                     i2l3028:
  1419                           
  1420                           ; BSR set to: 5
  1421                           ;C:\Program Files\Microchip\xc8\v2.40\pic\sources\c99\common\doprnt.c: 1459:      convar
      +                          g.f = (long double)(*(double *)__va_arg(*(double **)ap, (double)0));
  1422   003D74  C590  F4D9         	movff	vfpfcnvrt@ap,fsr2l
  1423   003D78  C591  F4DA         	movff	vfpfcnvrt@ap+1,fsr2h
  1424   003D7C  C4DF F53D          	movff	indf2,??_vfpfcnvrt
  1425   003D80  0E04               	movlw	4
  1426   003D82  26DE               	addwf	postinc2,f,c
  1427   003D84  C4DF F53E          	movff	indf2,??_vfpfcnvrt+1
  1428   003D88  0E00               	movlw	0
  1429   003D8A  22DD               	addwfc	postdec2,f,c
  1430   003D8C  C53D  F4D9         	movff	??_vfpfcnvrt,fsr2l
  1431   003D90  C53E  F4DA         	movff	??_vfpfcnvrt+1,fsr2h
  1432   003D94  C4DE F53F          	movff	postinc2,vfpfcnvrt@convarg
  1433   003D98  C4DE F540          	movff	postinc2,vfpfcnvrt@convarg+1
  1434   003D9C  C4DE F541          	movff	postinc2,vfpfcnvrt@convarg+2
  1435   003DA0  C4DE F542          	movff	postinc2,vfpfcnvrt@convarg+3
  1436                           
  1437                           ;C:\Program Files\Microchip\xc8\v2.40\pic\sources\c99\common\doprnt.c: 1460:      break;
  1438   003DA4  EF03  F01F         	goto	i2l3036
  1439   003DA8                     i2l3030:
  1440                           
  1441                           ; BSR set to: 5
  1442                           ;C:\Program Files\Microchip\xc8\v2.40\pic\sources\c99\common\doprnt.c: 1462:      convar
      +                          g.f = (long double)(*(long double *)__va_arg(*(long double **)ap, (long double)0));
  1443   003DA8  C590  F4D9         	movff	vfpfcnvrt@ap,fsr2l
  1444   003DAC  C591  F4DA         	movff	vfpfcnvrt@ap+1,fsr2h
  1445   003DB0  C4DF F53D          	movff	indf2,??_vfpfcnvrt
  1446   003DB4  0E04               	movlw	4
  1447   003DB6  26DE               	addwf	postinc2,f,c
  1448   003DB8  C4DF F53E          	movff	indf2,??_vfpfcnvrt+1
  1449   003DBC  0E00               	movlw	0
  1450   003DBE  22DD               	addwfc	postdec2,f,c
  1451   003DC0  C53D  F4D9         	movff	??_vfpfcnvrt,fsr2l
  1452   003DC4  C53E  F4DA         	movff	??_vfpfcnvrt+1,fsr2h
  1453   003DC8  C4DE F53F          	movff	postinc2,vfpfcnvrt@convarg
  1454   003DCC  C4DE F540          	movff	postinc2,vfpfcnvrt@convarg+1
  1455   003DD0  C4DE F541          	movff	postinc2,vfpfcnvrt@convarg+2
  1456   003DD4  C4DE F542          	movff	postinc2,vfpfcnvrt@convarg+3
  1457                           
  1458                           ;C:\Program Files\Microchip\xc8\v2.40\pic\sources\c99\common\doprnt.c: 1463:      break;
  1459   003DD8  EF03  F01F         	goto	i2l3036
  1460   003DDC                     i2l3034:
  1461                           
  1462                           ; BSR set to: 5
  1463   003DDC  5047               	movf	vfpfcnvrt@c^(0+1280),w,c
  1464   003DDE  6E3D               	movwf	??_vfpfcnvrt^(0+1280),c
  1465   003DE0  6A3E               	clrf	(??_vfpfcnvrt+1)^(0+1280),c
  1466                           
  1467                           ; Switch on 2 bytes has been partitioned into a top level switch of size 1, and 1 sub-sw
      +                          itches
  1468                           ; Switch size 1, requested type "simple"
  1469                           ; Number of cases is 1, Range of values is 0 to 0
  1470                           ; switch strategies available:
  1471                           ; Name         Instructions Cycles
  1472                           ; simple_byte            4     3 (average)
  1473                           ;	Chosen strategy is simple_byte
  1474   003DE2  503E               	movf	(??_vfpfcnvrt+1)^(0+1280),w,c
  1475   003DE4  0A00               	xorlw	0	; case 0
  1476   003DE6  B4D8               	btfsc	status,2,c
  1477   003DE8  EFF8  F01E         	goto	i2l3362
  1478   003DEC  EF03  F01F         	goto	i2l3036
  1479   003DF0                     i2l3362:
  1480                           
  1481                           ; BSR set to: 5
  1482                           ; Switch size 1, requested type "simple"
  1483                           ; Number of cases is 2, Range of values is 76 to 108
  1484                           ; switch strategies available:
  1485                           ; Name         Instructions Cycles
  1486                           ; simple_byte            7     4 (average)
  1487                           ;	Chosen strategy is simple_byte
  1488   003DF0  503D               	movf	??_vfpfcnvrt^(0+1280),w,c
  1489   003DF2  0A4C               	xorlw	76	; case 76
  1490   003DF4  B4D8               	btfsc	status,2,c
  1491   003DF6  EFD4  F01E         	goto	i2l3030
  1492   003DFA  0A20               	xorlw	32	; case 108
  1493   003DFC  B4D8               	btfsc	status,2,c
  1494   003DFE  EFBA  F01E         	goto	i2l3028
  1495   003E02  EF03  F01F         	goto	i2l3036
  1496   003E06                     i2l3036:
  1497                           
  1498                           ; BSR set to: 5
  1499                           ;C:\Program Files\Microchip\xc8\v2.40\pic\sources\c99\common\doprnt.c: 1465:    *fmt = c
      +                          p+1;
  1500   003E06  0E01               	movlw	1
  1501   003E08  2448               	addwf	vfpfcnvrt@cp^(0+1280),w,c
  1502   003E0A  6E3D               	movwf	??_vfpfcnvrt^(0+1280),c
  1503   003E0C  0E00               	movlw	0
  1504   003E0E  2049               	addwfc	(vfpfcnvrt@cp+1)^(0+1280),w,c
  1505   003E10  6E3E               	movwf	(??_vfpfcnvrt+1)^(0+1280),c
  1506   003E12  C58E  F4D9         	movff	vfpfcnvrt@fmt,fsr2l
  1507   003E16  C58F  F4DA         	movff	vfpfcnvrt@fmt+1,fsr2h
  1508   003E1A  C53D  F4DE         	movff	??_vfpfcnvrt,postinc2
  1509   003E1E  C53E  F4DD         	movff	??_vfpfcnvrt+1,postdec2
  1510                           
  1511                           ;C:\Program Files\Microchip\xc8\v2.40\pic\sources\c99\common\doprnt.c: 1466:    switch (
      +                          *cp) {
  1512   003E22  EF2C  F01F         	goto	i2l3044
  1513   003E26                     i2l3038:
  1514                           
  1515                           ; BSR set to: 5
  1516                           ;C:\Program Files\Microchip\xc8\v2.40\pic\sources\c99\common\doprnt.c: 1493:      return
      +                           (void) efgtoa(fp, convarg.f, *cp);;	Return value of _vfpfcnvrt is never used
  1517   003E26  C58C  F534         	movff	vfpfcnvrt@fp,efgtoa@fp
  1518   003E2A  C58D  F535         	movff	vfpfcnvrt@fp+1,efgtoa@fp+1
  1519   003E2E  C53F  F536         	movff	vfpfcnvrt@convarg,efgtoa@f
  1520   003E32  C540  F537         	movff	vfpfcnvrt@convarg+1,efgtoa@f+1
  1521   003E36  C541  F538         	movff	vfpfcnvrt@convarg+2,efgtoa@f+2
  1522   003E3A  C542  F539         	movff	vfpfcnvrt@convarg+3,efgtoa@f+3
  1523   003E3E  C548  F4F6         	movff	vfpfcnvrt@cp,tblptrl
  1524   003E42  C549  F4F7         	movff	vfpfcnvrt@cp+1,tblptrh
  1525   003E46                     	if	0	;tblptru may be non-zero
  1526   003E46                     	endif
  1527   003E46                     	if	1	;Program memory is > 0xFFFF, there are 3 active tblptr bytes
  1528   003E46  0E00               	movlw	low (__mediumconst shr (0+16))
  1529   003E48  6EF8               	movwf	tblptru,c
  1530   003E4A                     	endif
  1531   003E4A  0008               	tblrd		*
  1532   003E4C  C4F5 F53A          	movff	tablat,efgtoa@c
  1533   003E50  EC0C  F013         	call	_efgtoa	;wreg free
  1534   003E54  EF63  F01F         	goto	i2l857
  1535   003E58                     i2l3044:
  1536                           
  1537                           ; BSR set to: 5
  1538   003E58  C548  F4F6         	movff	vfpfcnvrt@cp,tblptrl
  1539   003E5C  C549  F4F7         	movff	vfpfcnvrt@cp+1,tblptrh
  1540   003E60                     	if	0	;tblptru may be non-zero
  1541   003E60                     	endif
  1542   003E60                     	if	1	;Program memory is > 0xFFFF, there are 3 active tblptr bytes
  1543   003E60  0E00               	movlw	low (__mediumconst shr (0+16))
  1544   003E62  6EF8               	movwf	tblptru,c
  1545   003E64                     	endif
  1546   003E64  0008               	tblrd		*
  1547   003E66  50F5               	movf	tablat,w,c
  1548   003E68  6E3D               	movwf	??_vfpfcnvrt^(0+1280),c
  1549   003E6A  6A3E               	clrf	(??_vfpfcnvrt+1)^(0+1280),c
  1550                           
  1551                           ; Switch on 2 bytes has been partitioned into a top level switch of size 1, and 1 sub-sw
      +                          itches
  1552                           ; Switch size 1, requested type "simple"
  1553                           ; Number of cases is 1, Range of values is 0 to 0
  1554                           ; switch strategies available:
  1555                           ; Name         Instructions Cycles
  1556                           ; simple_byte            4     3 (average)
  1557                           ;	Chosen strategy is simple_byte
  1558   003E6C  503E               	movf	(??_vfpfcnvrt+1)^(0+1280),w,c
  1559   003E6E  0A00               	xorlw	0	; case 0
  1560   003E70  B4D8               	btfsc	status,2,c
  1561   003E72  EF3D  F01F         	goto	i2l3364
  1562   003E76  EF44  F01F         	goto	i2l3046
  1563   003E7A                     i2l3364:
  1564                           
  1565                           ; BSR set to: 5
  1566                           ; Switch size 1, requested type "simple"
  1567                           ; Number of cases is 1, Range of values is 102 to 102
  1568                           ; switch strategies available:
  1569                           ; Name         Instructions Cycles
  1570                           ; simple_byte            4     3 (average)
  1571                           ;	Chosen strategy is simple_byte
  1572   003E7A  503D               	movf	??_vfpfcnvrt^(0+1280),w,c
  1573   003E7C  0A66               	xorlw	102	; case 102
  1574   003E7E  B4D8               	btfsc	status,2,c
  1575   003E80  EF13  F01F         	goto	i2l3038
  1576   003E84  EF44  F01F         	goto	i2l3046
  1577   003E88                     i2l3046:
  1578                           
  1579                           ;C:\Program Files\Microchip\xc8\v2.40\pic\sources\c99\common\doprnt.c: 1509:         ++*
      +                          fmt;
  1580   003E88  C58E  F4D9         	movff	vfpfcnvrt@fmt,fsr2l
  1581   003E8C  C58F  F4DA         	movff	vfpfcnvrt@fmt+1,fsr2h
  1582   003E90  2ADE               	incf	postinc2,f,c
  1583   003E92  0E00               	movlw	0
  1584   003E94  22DD               	addwfc	postdec2,f,c
  1585   003E96  EF63  F01F         	goto	i2l857
  1586   003E9A                     i2l3050:
  1587                           
  1588                           ;C:\Program Files\Microchip\xc8\v2.40\pic\sources\c99\common\doprnt.c: 1514:     fputc((
      +                          int)(*fmt)[0], fp);
  1589   003E9A  C58E  F4D9         	movff	vfpfcnvrt@fmt,fsr2l
  1590   003E9E  C58F  F4DA         	movff	vfpfcnvrt@fmt+1,fsr2h
  1591   003EA2  C4DE F4F6          	movff	postinc2,tblptrl
  1592   003EA6  C4DD F4F7          	movff	postdec2,tblptrh
  1593   003EAA                     	if	0	;tblptru may be non-zero
  1594   003EAA                     	endif
  1595   003EAA                     	if	1	;Program memory is > 0xFFFF, there are 3 active tblptr bytes
  1596   003EAA  0E00               	movlw	low (__mediumconst shr (0+16))
  1597   003EAC  6EF8               	movwf	tblptru,c
  1598   003EAE                     	endif
  1599   003EAE  0008               	tblrd		*
  1600   003EB0  50F5               	movf	tablat,w,c
  1601   003EB2  6E01               	movwf	fputc@c^(0+1280),c
  1602   003EB4  6A02               	clrf	(fputc@c+1)^(0+1280),c
  1603   003EB6  C58C  F503         	movff	vfpfcnvrt@fp,fputc@fp
  1604   003EBA  C58D  F504         	movff	vfpfcnvrt@fp+1,fputc@fp+1
  1605   003EBE  EC3E  F023         	call	_fputc	;wreg free
  1606   003EC2  EF44  F01F         	goto	i2l3046
  1607   003EC6                     i2l857:
  1608   003EC6  0012               	return		;funcret
  1609   003EC8                     __end_of_vfpfcnvrt:
  1610                           	callstack 0
  1611                           
  1612 ;; *************** function _efgtoa *****************
  1613 ;; Defined at:
  1614 ;;		line 506 in file "C:\Program Files\Microchip\xc8\v2.40\pic\sources\c99\common\doprnt.c"
  1615 ;; Parameters:    Size  Location     Type
  1616 ;;  fp              2   51[COMRAM] PTR struct _IO_FILE
  1617 ;;		 -> sprintf@f(11), 
  1618 ;;  f               4   53[COMRAM] PTR struct _IO_FILE
  1619 ;;  c               1   57[COMRAM] unsigned char 
  1620 ;; Auto vars:     Size  Location     Type
  1621 ;;  u               4   40[BANK5 ] struct flui
  1622 ;;  g               4   36[BANK5 ] struct flui
  1623 ;;  l               4   29[BANK5 ] struct flui
  1624 ;;  h               4   25[BANK5 ] struct flui
  1625 ;;  ou              4   19[BANK5 ] struct flui
  1626 ;;  n               2   34[BANK5 ] int 
  1627 ;;  i               2   23[BANK5 ] int 
  1628 ;;  w               2   17[BANK5 ] int 
  1629 ;;  e               2   15[BANK5 ] int 
  1630 ;;  m               2   13[BANK5 ] int 
  1631 ;;  d               2   11[BANK5 ] int 
  1632 ;;  t               2    4[BANK5 ] int 
  1633 ;;  p               2    2[BANK5 ] int 
  1634 ;;  ne              2    0[BANK5 ] int 
  1635 ;;  sign            1   33[BANK5 ] unsigned char 
  1636 ;;  nmode           1   10[BANK5 ] unsigned char 
  1637 ;;  mode            1    9[BANK5 ] unsigned char 
  1638 ;;  pp              1    8[BANK5 ] unsigned char 
  1639 ;;  esign           1    0        unsigned char 
  1640 ;; Return value:  Size  Location     Type
  1641 ;;                  1    wreg      void 
  1642 ;; Registers used:
  1643 ;;		wreg, fsr1l, fsr1h, fsr2l, fsr2h, status,2, status,0, tblptrl, tblptrh, tblptru, prodl, prodh, cstack
  1644 ;; Tracked objects:
  1645 ;;		On entry : 0/0
  1646 ;;		On exit  : 0/0
  1647 ;;		Unchanged: 0/0
  1648 ;; Data sizes:     COMRAM   BANK5   BANK6   BANK7   BANK8   BANK9  BANK10  BANK11  BANK12  BANK13  BANK14  BANK15  BANK1
      +6  BANK17  BANK18  BANK19  BANK20  BANK21  BANK22  BANK23  BANK24  BANK25  BANK26  BANK27  BANK28  BANK29  BANK30  BANK3
      +1  BANK32  BANK33  BANK34  BANK35  BANK36
  1649 ;;      Params:         7       0       0       0       0       0       0       0       0       0       0       0       
      +0       0       0       0       0       0       0       0       0       0       0       0       0       0       0       
      +0       0       0       0       0       0
  1650 ;;      Locals:         0      44       0       0       0       0       0       0       0       0       0       0       
      +0       0       0       0       0       0       0       0       0       0       0       0       0       0       0       
      +0       0       0       0       0       0
  1651 ;;      Temps:          2       0       0       0       0       0       0       0       0       0       0       0       
      +0       0       0       0       0       0       0       0       0       0       0       0       0       0       0       
      +0       0       0       0       0       0
  1652 ;;      Totals:         9      44       0       0       0       0       0       0       0       0       0       0       
      +0       0       0       0       0       0       0       0       0       0       0       0       0       0       0       
      +0       0       0       0       0       0
  1653 ;;Total ram usage:       53 bytes
  1654 ;; Hardware stack levels used: 1
  1655 ;; Hardware stack levels required when called: 4
  1656 ;; This function calls:
  1657 ;;		___fladd
  1658 ;;		___fldiv
  1659 ;;		___fleq
  1660 ;;		___flge
  1661 ;;		___flmul
  1662 ;;		___flneg
  1663 ;;		___flsub
  1664 ;;		___fltol
  1665 ;;		___fpclassifyf
  1666 ;;		_floorf
  1667 ;;		_labs
  1668 ;;		_memcpy
  1669 ;;		_pad
  1670 ;;		_strcpy
  1671 ;; This function is called by:
  1672 ;;		_vfpfcnvrt
  1673 ;; This function uses a non-reentrant model
  1674 ;;
  1675                           
  1676                           	psect	text5
  1677   002618                     __ptext5:
  1678                           	callstack 0
  1679   002618                     _efgtoa:
  1680                           	callstack 118
  1681   002618                     
  1682                           ;C:\Program Files\Microchip\xc8\v2.40\pic\sources\c99\common\doprnt.c: 506: static void 
      +                          efgtoa(FILE *fp, long double f, char c);C:\Program Files\Microchip\xc8\v2.40\pic\sources
      +                          \c99\common\doprnt.c: 507: {;C:\Program Files\Microchip\xc8\v2.40\pic\sources\c99\common
      +                          \doprnt.c: 508:     char mode, nmode, pp, sign, esign;;C:\Program Files\Microchip\xc8\v2
      +                          .40\pic\sources\c99\common\doprnt.c: 509:     int d, e, i, m, n, ne, p, t, w;;C:\Program
      +                           Files\Microchip\xc8\v2.40\pic\sources\c99\common\doprnt.c: 510:     long double h, l;
  1683   002618  0E00               	movlw	0
  1684   00261A  0105               	movlb	5	; () banked
  1685   00261C  6F81               	movwf	efgtoa@sign& (0+255),b
  1686   00261E                     
  1687                           ; BSR set to: 5
  1688                           ;C:\Program Files\Microchip\xc8\v2.40\pic\sources\c99\common\doprnt.c: 515:     g.f = f;
  1689   00261E  C536  F584         	movff	efgtoa@f,efgtoa@g
  1690   002622  C537  F585         	movff	efgtoa@f+1,efgtoa@g+1
  1691   002626  C538  F586         	movff	efgtoa@f+2,efgtoa@g+2
  1692   00262A  C539  F587         	movff	efgtoa@f+3,efgtoa@g+3
  1693   00262E                     
  1694                           ; BSR set to: 5
  1695                           ;C:\Program Files\Microchip\xc8\v2.40\pic\sources\c99\common\doprnt.c: 516:     if (g.f 
      +                          < 0.0) {
  1696   00262E  BF87               	btfsc	(efgtoa@g+3)& (0+255),7,b
  1697   002630  EF1E  F013         	goto	i2u295_40
  1698   002634  EF1C  F013         	goto	i2u295_41
  1699   002638                     i2u295_41:
  1700   002638  EF32  F013         	goto	i2l2792
  1701   00263C                     i2u295_40:
  1702   00263C                     
  1703                           ; BSR set to: 5
  1704                           ;C:\Program Files\Microchip\xc8\v2.40\pic\sources\c99\common\doprnt.c: 517:         sign
      +                           = 1;
  1705   00263C  0E01               	movlw	1
  1706   00263E  6F81               	movwf	efgtoa@sign& (0+255),b
  1707   002640                     
  1708                           ; BSR set to: 5
  1709                           ;C:\Program Files\Microchip\xc8\v2.40\pic\sources\c99\common\doprnt.c: 518:         g.f 
      +                          = -g.f;
  1710   002640  C584  F501         	movff	efgtoa@g,___flneg@f1
  1711   002644  C585  F502         	movff	efgtoa@g+1,___flneg@f1+1
  1712   002648  C586  F503         	movff	efgtoa@g+2,___flneg@f1+2
  1713   00264C  C587  F504         	movff	efgtoa@g+3,___flneg@f1+3
  1714   002650  EC8A  F025         	call	___flneg	;wreg free
  1715   002654  C501  F584         	movff	?___flneg,efgtoa@g
  1716   002658  C502  F585         	movff	?___flneg+1,efgtoa@g+1
  1717   00265C  C503  F586         	movff	?___flneg+2,efgtoa@g+2
  1718   002660  C504  F587         	movff	?___flneg+3,efgtoa@g+3
  1719   002664                     i2l2792:
  1720                           
  1721                           ;C:\Program Files\Microchip\xc8\v2.40\pic\sources\c99\common\doprnt.c: 522:     n = 0;
  1722   002664  0E00               	movlw	0
  1723   002666  0105               	movlb	5	; () banked
  1724   002668  6F83               	movwf	(efgtoa@n+1)& (0+255),b
  1725   00266A  0E00               	movlw	0
  1726   00266C  6F82               	movwf	efgtoa@n& (0+255),b
  1727   00266E                     
  1728                           ; BSR set to: 5
  1729                           ;C:\Program Files\Microchip\xc8\v2.40\pic\sources\c99\common\doprnt.c: 523:     w = widt
      +                          h;
  1730   00266E  C5C0  F571         	movff	_width,efgtoa@w
  1731   002672  C5C1  F572         	movff	_width+1,efgtoa@w+1
  1732   002676                     
  1733                           ; BSR set to: 5
  1734                           ;C:\Program Files\Microchip\xc8\v2.40\pic\sources\c99\common\doprnt.c: 524:     if (sign
  1735   002676  5181               	movf	efgtoa@sign& (0+255),w,b
  1736   002678  B4D8               	btfsc	status,2,c
  1737   00267A  EF41  F013         	goto	i2u296_41
  1738   00267E  EF43  F013         	goto	i2u296_40
  1739   002682                     i2u296_41:
  1740   002682  EF57  F013         	goto	i2l2806
  1741   002686                     i2u296_40:
  1742   002686                     
  1743                           ; BSR set to: 5
  1744                           ;C:\Program Files\Microchip\xc8\v2.40\pic\sources\c99\common\doprnt.c: 528:    ) {;C:\Pr
      +                          ogram Files\Microchip\xc8\v2.40\pic\sources\c99\common\doprnt.c: 529:   sign = sign ? '-
      +                          ' : '+';
  1745   002686  5181               	movf	efgtoa@sign& (0+255),w,b
  1746   002688  A4D8               	btfss	status,2,c
  1747   00268A  EF49  F013         	goto	i2u297_41
  1748   00268E  EF4B  F013         	goto	i2u297_40
  1749   002692                     i2u297_41:
  1750   002692  EF51  F013         	goto	i2l2802
  1751   002696                     i2u297_40:
  1752   002696                     
  1753                           ; BSR set to: 5
  1754   002696  0E00               	movlw	0
  1755   002698  6F67               	movwf	(_efgtoa$1252+1)& (0+255),b
  1756   00269A  0E2B               	movlw	43
  1757   00269C  6F66               	movwf	_efgtoa$1252& (0+255),b
  1758   00269E  EF55  F013         	goto	i2l2804
  1759   0026A2                     i2l2802:
  1760                           
  1761                           ; BSR set to: 5
  1762   0026A2  0E00               	movlw	0
  1763   0026A4  6F67               	movwf	(_efgtoa$1252+1)& (0+255),b
  1764   0026A6  0E2D               	movlw	45
  1765   0026A8  6F66               	movwf	_efgtoa$1252& (0+255),b
  1766   0026AA                     i2l2804:
  1767                           
  1768                           ; BSR set to: 5
  1769   0026AA  C566  F581         	movff	_efgtoa$1252,efgtoa@sign
  1770   0026AE                     i2l2806:
  1771                           
  1772                           ; BSR set to: 5
  1773                           ;C:\Program Files\Microchip\xc8\v2.40\pic\sources\c99\common\doprnt.c: 538:     if (( __
      +                          fpclassifyf(g.f) == 1 )) {
  1774   0026AE  C584  F501         	movff	efgtoa@g,___fpclassifyf@x
  1775   0026B2  C585  F502         	movff	efgtoa@g+1,___fpclassifyf@x+1
  1776   0026B6  C586  F503         	movff	efgtoa@g+2,___fpclassifyf@x+2
  1777   0026BA  C587  F504         	movff	efgtoa@g+3,___fpclassifyf@x+3
  1778   0026BE  EC4C  F022         	call	___fpclassifyf	;wreg free
  1779   0026C2  0401               	decf	?___fpclassifyf^(0+1280),w,c
  1780   0026C4  1002               	iorwf	(?___fpclassifyf+1)^(0+1280),w,c
  1781   0026C6  A4D8               	btfss	status,2,c
  1782   0026C8  EF68  F013         	goto	i2u298_41
  1783   0026CC  EF6A  F013         	goto	i2u298_40
  1784   0026D0                     i2u298_41:
  1785   0026D0  EF9D  F013         	goto	i2l2824
  1786   0026D4                     i2u298_40:
  1787   0026D4                     
  1788                           ;C:\Program Files\Microchip\xc8\v2.40\pic\sources\c99\common\doprnt.c: 539:   if (sign) 
      +                          {
  1789   0026D4  0105               	movlb	5	; () banked
  1790   0026D6  5181               	movf	efgtoa@sign& (0+255),w,b
  1791   0026D8  B4D8               	btfsc	status,2,c
  1792   0026DA  EF71  F013         	goto	i2u299_41
  1793   0026DE  EF73  F013         	goto	i2u299_40
  1794   0026E2                     i2u299_41:
  1795   0026E2  EF7C  F013         	goto	i2l2816
  1796   0026E6                     i2u299_40:
  1797   0026E6                     
  1798                           ; BSR set to: 5
  1799                           ;C:\Program Files\Microchip\xc8\v2.40\pic\sources\c99\common\doprnt.c: 540:    dbuf[0] =
      +                           sign;
  1800   0026E6  C581  F600         	movff	efgtoa@sign,_dbuf
  1801   0026EA                     
  1802                           ; BSR set to: 5
  1803                           ;C:\Program Files\Microchip\xc8\v2.40\pic\sources\c99\common\doprnt.c: 541:    w--;
  1804   0026EA  0771               	decf	efgtoa@w& (0+255),f,b
  1805   0026EC  A0D8               	btfss	status,0,c
  1806   0026EE  0772               	decf	(efgtoa@w+1)& (0+255),f,b
  1807   0026F0                     
  1808                           ; BSR set to: 5
  1809                           ;C:\Program Files\Microchip\xc8\v2.40\pic\sources\c99\common\doprnt.c: 542:    n = 1;
  1810   0026F0  0E00               	movlw	0
  1811   0026F2  6F83               	movwf	(efgtoa@n+1)& (0+255),b
  1812   0026F4  0E01               	movlw	1
  1813   0026F6  6F82               	movwf	efgtoa@n& (0+255),b
  1814   0026F8                     i2l2816:
  1815                           
  1816                           ; BSR set to: 5
  1817                           ;C:\Program Files\Microchip\xc8\v2.40\pic\sources\c99\common\doprnt.c: 550:   {;C:\Progr
      +                          am Files\Microchip\xc8\v2.40\pic\sources\c99\common\doprnt.c: 551:             strcpy(&d
      +                          buf[n], "inf");
  1818   0026F8  0E00               	movlw	low _dbuf
  1819   0026FA  2582               	addwf	efgtoa@n& (0+255),w,b
  1820   0026FC  6E01               	movwf	strcpy@dest^(0+1280),c
  1821   0026FE  0E06               	movlw	high _dbuf
  1822   002700  2183               	addwfc	(efgtoa@n+1)& (0+255),w,b
  1823   002702  6E02               	movwf	(strcpy@dest+1)^(0+1280),c
  1824   002704  0E0F               	movlw	low STR_2
  1825   002706  6E03               	movwf	strcpy@src^(0+1280),c
  1826   002708  0E26               	movlw	high STR_2
  1827   00270A  6E04               	movwf	(strcpy@src+1)^(0+1280),c
  1828   00270C  EC46  F025         	call	_strcpy	;wreg free
  1829   002710                     i2l2818:
  1830                           
  1831                           ;C:\Program Files\Microchip\xc8\v2.40\pic\sources\c99\common\doprnt.c: 552:         };C:
      +                          \Program Files\Microchip\xc8\v2.40\pic\sources\c99\common\doprnt.c: 553:         w -= ((
      +                          sizeof("inf")/sizeof("inf"[0]))-1);
  1832   002710  0105               	movlb	5	; () banked
  1833   002712  0EFD               	movlw	253
  1834   002714  2771               	addwf	efgtoa@w& (0+255),f,b
  1835   002716  0EFF               	movlw	255
  1836   002718  2372               	addwfc	(efgtoa@w+1)& (0+255),f,b
  1837   00271A                     
  1838                           ; BSR set to: 5
  1839                           ;C:\Program Files\Microchip\xc8\v2.40\pic\sources\c99\common\doprnt.c: 554:         retu
      +                          rn (void) pad(fp, &dbuf[0], w);
  1840   00271A  C534  F511         	movff	efgtoa@fp,pad@fp
  1841   00271E  C535  F512         	movff	efgtoa@fp+1,pad@fp+1
  1842   002722  0E00               	movlw	low _dbuf
  1843   002724  6E13               	movwf	pad@buf^(0+1280),c
  1844   002726  0E06               	movlw	high _dbuf
  1845   002728  6E14               	movwf	(pad@buf+1)^(0+1280),c
  1846   00272A  C571  F515         	movff	efgtoa@w,pad@p
  1847   00272E  C572  F516         	movff	efgtoa@w+1,pad@p+1
  1848   002732  EC37  F024         	call	_pad	;wreg free
  1849   002736  EF09  F018         	goto	i2l797
  1850   00273A                     i2l2824:
  1851                           
  1852                           ;C:\Program Files\Microchip\xc8\v2.40\pic\sources\c99\common\doprnt.c: 556:     if (( __
      +                          fpclassifyf(g.f) == 0 )) {
  1853   00273A  C584  F501         	movff	efgtoa@g,___fpclassifyf@x
  1854   00273E  C585  F502         	movff	efgtoa@g+1,___fpclassifyf@x+1
  1855   002742  C586  F503         	movff	efgtoa@g+2,___fpclassifyf@x+2
  1856   002746  C587  F504         	movff	efgtoa@g+3,___fpclassifyf@x+3
  1857   00274A  EC4C  F022         	call	___fpclassifyf	;wreg free
  1858   00274E  5001               	movf	?___fpclassifyf^(0+1280),w,c
  1859   002750  1002               	iorwf	(?___fpclassifyf+1)^(0+1280),w,c
  1860   002752  A4D8               	btfss	status,2,c
  1861   002754  EFAE  F013         	goto	i2u300_41
  1862   002758  EFB0  F013         	goto	i2u300_40
  1863   00275C                     i2u300_41:
  1864   00275C  EFD0  F013         	goto	i2l2842
  1865   002760                     i2u300_40:
  1866   002760                     
  1867                           ;C:\Program Files\Microchip\xc8\v2.40\pic\sources\c99\common\doprnt.c: 557:   if (sign) 
      +                          {
  1868   002760  0105               	movlb	5	; () banked
  1869   002762  5181               	movf	efgtoa@sign& (0+255),w,b
  1870   002764  B4D8               	btfsc	status,2,c
  1871   002766  EFB7  F013         	goto	i2u301_41
  1872   00276A  EFB9  F013         	goto	i2u301_40
  1873   00276E                     i2u301_41:
  1874   00276E  EFC2  F013         	goto	i2l2834
  1875   002772                     i2u301_40:
  1876   002772                     
  1877                           ; BSR set to: 5
  1878                           ;C:\Program Files\Microchip\xc8\v2.40\pic\sources\c99\common\doprnt.c: 558:    dbuf[0] =
      +                           sign;
  1879   002772  C581  F600         	movff	efgtoa@sign,_dbuf
  1880   002776                     
  1881                           ; BSR set to: 5
  1882                           ;C:\Program Files\Microchip\xc8\v2.40\pic\sources\c99\common\doprnt.c: 559:    w--;
  1883   002776  0771               	decf	efgtoa@w& (0+255),f,b
  1884   002778  A0D8               	btfss	status,0,c
  1885   00277A  0772               	decf	(efgtoa@w+1)& (0+255),f,b
  1886   00277C                     
  1887                           ; BSR set to: 5
  1888                           ;C:\Program Files\Microchip\xc8\v2.40\pic\sources\c99\common\doprnt.c: 560:    n = 1;
  1889   00277C  0E00               	movlw	0
  1890   00277E  6F83               	movwf	(efgtoa@n+1)& (0+255),b
  1891   002780  0E01               	movlw	1
  1892   002782  6F82               	movwf	efgtoa@n& (0+255),b
  1893   002784                     i2l2834:
  1894                           
  1895                           ; BSR set to: 5
  1896                           ;C:\Program Files\Microchip\xc8\v2.40\pic\sources\c99\common\doprnt.c: 568:   {;C:\Progr
      +                          am Files\Microchip\xc8\v2.40\pic\sources\c99\common\doprnt.c: 569:             strcpy(&d
      +                          buf[n], "nan");
  1897   002784  0E00               	movlw	low _dbuf
  1898   002786  2582               	addwf	efgtoa@n& (0+255),w,b
  1899   002788  6E01               	movwf	strcpy@dest^(0+1280),c
  1900   00278A  0E06               	movlw	high _dbuf
  1901   00278C  2183               	addwfc	(efgtoa@n+1)& (0+255),w,b
  1902   00278E  6E02               	movwf	(strcpy@dest+1)^(0+1280),c
  1903   002790  0E13               	movlw	low STR_5
  1904   002792  6E03               	movwf	strcpy@src^(0+1280),c
  1905   002794  0E26               	movlw	high STR_5
  1906   002796  6E04               	movwf	(strcpy@src+1)^(0+1280),c
  1907   002798  EC46  F025         	call	_strcpy	;wreg free
  1908   00279C  EF88  F013         	goto	i2l2818
  1909   0027A0                     i2l2842:
  1910                           
  1911                           ;C:\Program Files\Microchip\xc8\v2.40\pic\sources\c99\common\doprnt.c: 576:     u.f = 1.
      +                          0;
  1912   0027A0  0E00               	movlw	0
  1913   0027A2  0105               	movlb	5	; () banked
  1914   0027A4  6F88               	movwf	efgtoa@u& (0+255),b
  1915   0027A6  0E00               	movlw	0
  1916   0027A8  6F89               	movwf	(efgtoa@u+1)& (0+255),b
  1917   0027AA  0E80               	movlw	128
  1918   0027AC  6F8A               	movwf	(efgtoa@u+2)& (0+255),b
  1919   0027AE  0E3F               	movlw	63
  1920   0027B0  6F8B               	movwf	(efgtoa@u+3)& (0+255),b
  1921                           
  1922                           ;C:\Program Files\Microchip\xc8\v2.40\pic\sources\c99\common\doprnt.c: 577:     e = 0;
  1923   0027B2  0E00               	movlw	0
  1924   0027B4  6F70               	movwf	(efgtoa@e+1)& (0+255),b
  1925   0027B6  0E00               	movlw	0
  1926   0027B8  6F6F               	movwf	efgtoa@e& (0+255),b
  1927   0027BA                     
  1928                           ; BSR set to: 5
  1929                           ;C:\Program Files\Microchip\xc8\v2.40\pic\sources\c99\common\doprnt.c: 578:  if (!(g.f =
      +                          = 0.0)) {
  1930   0027BA  C584  F501         	movff	efgtoa@g,___fleq@ff1
  1931   0027BE  C585  F502         	movff	efgtoa@g+1,___fleq@ff1+1
  1932   0027C2  C586  F503         	movff	efgtoa@g+2,___fleq@ff1+2
  1933   0027C6  C587  F504         	movff	efgtoa@g+3,___fleq@ff1+3
  1934   0027CA  0E00               	movlw	0
  1935   0027CC  6E05               	movwf	___fleq@ff2^(0+1280),c
  1936   0027CE  0E00               	movlw	0
  1937   0027D0  6E06               	movwf	(___fleq@ff2+1)^(0+1280),c
  1938   0027D2  0E00               	movlw	0
  1939   0027D4  6E07               	movwf	(___fleq@ff2+2)^(0+1280),c
  1940   0027D6  0E00               	movlw	0
  1941   0027D8  6E08               	movwf	(___fleq@ff2+3)^(0+1280),c
  1942   0027DA  ECA3  F023         	call	___fleq	;wreg free
  1943   0027DE  B0D8               	btfsc	status,0,c
  1944   0027E0  EFF4  F013         	goto	i2u302_41
  1945   0027E4  EFF6  F013         	goto	i2u302_40
  1946   0027E8                     i2u302_41:
  1947   0027E8  EFD5  F014         	goto	i2l800
  1948   0027EC                     i2u302_40:
  1949   0027EC  EF03  F014         	goto	i2l2850
  1950   0027F0                     i2l802:
  1951                           
  1952                           ;C:\Program Files\Microchip\xc8\v2.40\pic\sources\c99\common\doprnt.c: 580:    u = ou;
  1953   0027F0  C573  F588         	movff	efgtoa@ou,efgtoa@u
  1954   0027F4  C574  F589         	movff	efgtoa@ou+1,efgtoa@u+1
  1955   0027F8  C575  F58A         	movff	efgtoa@ou+2,efgtoa@u+2
  1956   0027FC  C576  F58B         	movff	efgtoa@ou+3,efgtoa@u+3
  1957   002800                     
  1958                           ;C:\Program Files\Microchip\xc8\v2.40\pic\sources\c99\common\doprnt.c: 581:    ++e;
  1959   002800  0105               	movlb	5	; () banked
  1960   002802  4B6F               	infsnz	efgtoa@e& (0+255),f,b
  1961   002804  2B70               	incf	(efgtoa@e+1)& (0+255),f,b
  1962   002806                     i2l2850:
  1963                           
  1964                           ;C:\Program Files\Microchip\xc8\v2.40\pic\sources\c99\common\doprnt.c: 579:   while ((la
      +                          bs((g).u-((ou.f = u.f*10.0,ou)).u) <= 1) || g.f > ou.f) {
  1965   002806  C588  F50F         	movff	efgtoa@u,___flmul@b
  1966   00280A  C589  F510         	movff	efgtoa@u+1,___flmul@b+1
  1967   00280E  C58A  F511         	movff	efgtoa@u+2,___flmul@b+2
  1968   002812  C58B  F512         	movff	efgtoa@u+3,___flmul@b+3
  1969   002816  0E00               	movlw	0
  1970   002818  6E13               	movwf	___flmul@a^(0+1280),c
  1971   00281A  0E00               	movlw	0
  1972   00281C  6E14               	movwf	(___flmul@a+1)^(0+1280),c
  1973   00281E  0E20               	movlw	32
  1974   002820  6E15               	movwf	(___flmul@a+2)^(0+1280),c
  1975   002822  0E41               	movlw	65
  1976   002824  6E16               	movwf	(___flmul@a+3)^(0+1280),c
  1977   002826  EC6A  F01A         	call	___flmul	;wreg free
  1978   00282A  C50F  F573         	movff	?___flmul,efgtoa@ou
  1979   00282E  C510  F574         	movff	?___flmul+1,efgtoa@ou+1
  1980   002832  C511  F575         	movff	?___flmul+2,efgtoa@ou+2
  1981   002836  C512  F576         	movff	?___flmul+3,efgtoa@ou+3
  1982   00283A  0105               	movlb	5	; () banked
  1983   00283C  5173               	movf	efgtoa@ou& (0+255),w,b
  1984   00283E  5D84               	subwf	efgtoa@g& (0+255),w,b
  1985   002840  6E01               	movwf	labs@a^(0+1280),c
  1986   002842  5174               	movf	(efgtoa@ou+1)& (0+255),w,b
  1987   002844  5985               	subwfb	(efgtoa@g+1)& (0+255),w,b
  1988   002846  6E02               	movwf	(labs@a+1)^(0+1280),c
  1989   002848  5175               	movf	(efgtoa@ou+2)& (0+255),w,b
  1990   00284A  5986               	subwfb	(efgtoa@g+2)& (0+255),w,b
  1991   00284C  6E03               	movwf	(labs@a+2)^(0+1280),c
  1992   00284E  5176               	movf	(efgtoa@ou+3)& (0+255),w,b
  1993   002850  5987               	subwfb	(efgtoa@g+3)& (0+255),w,b
  1994   002852  6E04               	movwf	(labs@a+3)^(0+1280),c
  1995   002854  EC74  F024         	call	_labs	;wreg free
  1996   002858  BE04               	btfsc	(?_labs+3)^(0+1280),7,c
  1997   00285A  EF3A  F014         	goto	i2u303_41
  1998   00285E  5004               	movf	(?_labs+3)^(0+1280),w,c
  1999   002860  1003               	iorwf	(?_labs+2)^(0+1280),w,c
  2000   002862  1002               	iorwf	(?_labs+1)^(0+1280),w,c
  2001   002864  E109               	bnz	i2u303_40
  2002   002866  0E02               	movlw	2
  2003   002868  5C01               	subwf	?_labs^(0+1280),w,c
  2004   00286A  A0D8               	btfss	status,0,c
  2005   00286C  EF3A  F014         	goto	i2u303_41
  2006   002870  EF3C  F014         	goto	i2u303_40
  2007   002874                     i2u303_41:
  2008   002874  EFF8  F013         	goto	i2l802
  2009   002878                     i2u303_40:
  2010   002878  C573  F528         	movff	efgtoa@ou,___flge@ff1
  2011   00287C  C574  F529         	movff	efgtoa@ou+1,___flge@ff1+1
  2012   002880  C575  F52A         	movff	efgtoa@ou+2,___flge@ff1+2
  2013   002884  C576  F52B         	movff	efgtoa@ou+3,___flge@ff1+3
  2014   002888  C584  F52C         	movff	efgtoa@g,___flge@ff2
  2015   00288C  C585  F52D         	movff	efgtoa@g+1,___flge@ff2+1
  2016   002890  C586  F52E         	movff	efgtoa@g+2,___flge@ff2+2
  2017   002894  C587  F52F         	movff	efgtoa@g+3,___flge@ff2+3
  2018   002898  ECCA  F021         	call	___flge	;wreg free
  2019   00289C  A0D8               	btfss	status,0,c
  2020   00289E  EF53  F014         	goto	i2u304_41
  2021   0028A2  EF55  F014         	goto	i2u304_40
  2022   0028A6                     i2u304_41:
  2023   0028A6  EFF8  F013         	goto	i2l802
  2024   0028AA                     i2u304_40:
  2025   0028AA                     
  2026                           ;C:\Program Files\Microchip\xc8\v2.40\pic\sources\c99\common\doprnt.c: 583:   if ((labs(
      +                          (g).u-(u).u) <= 1)) {
  2027   0028AA  0105               	movlb	5	; () banked
  2028   0028AC  5188               	movf	efgtoa@u& (0+255),w,b
  2029   0028AE  5D84               	subwf	efgtoa@g& (0+255),w,b
  2030   0028B0  6E01               	movwf	labs@a^(0+1280),c
  2031   0028B2  5189               	movf	(efgtoa@u+1)& (0+255),w,b
  2032   0028B4  5985               	subwfb	(efgtoa@g+1)& (0+255),w,b
  2033   0028B6  6E02               	movwf	(labs@a+1)^(0+1280),c
  2034   0028B8  518A               	movf	(efgtoa@u+2)& (0+255),w,b
  2035   0028BA  5986               	subwfb	(efgtoa@g+2)& (0+255),w,b
  2036   0028BC  6E03               	movwf	(labs@a+2)^(0+1280),c
  2037   0028BE  518B               	movf	(efgtoa@u+3)& (0+255),w,b
  2038   0028C0  5987               	subwfb	(efgtoa@g+3)& (0+255),w,b
  2039   0028C2  6E04               	movwf	(labs@a+3)^(0+1280),c
  2040   0028C4  EC74  F024         	call	_labs	;wreg free
  2041   0028C8  BE04               	btfsc	(?_labs+3)^(0+1280),7,c
  2042   0028CA  EF74  F014         	goto	i2u305_40
  2043   0028CE  5004               	movf	(?_labs+3)^(0+1280),w,c
  2044   0028D0  1003               	iorwf	(?_labs+2)^(0+1280),w,c
  2045   0028D2  1002               	iorwf	(?_labs+1)^(0+1280),w,c
  2046   0028D4  E107               	bnz	i2u305_41
  2047   0028D6  0E02               	movlw	2
  2048   0028D8  5C01               	subwf	?_labs^(0+1280),w,c
  2049   0028DA  B0D8               	btfsc	status,0,c
  2050   0028DC  EF72  F014         	goto	i2u305_41
  2051   0028E0  EF74  F014         	goto	i2u305_40
  2052   0028E4                     i2u305_41:
  2053   0028E4  EFBC  F014         	goto	i2l2868
  2054   0028E8                     i2u305_40:
  2055   0028E8                     i2l2858:
  2056                           
  2057                           ;C:\Program Files\Microchip\xc8\v2.40\pic\sources\c99\common\doprnt.c: 584:    g = u;
  2058   0028E8  C588  F584         	movff	efgtoa@u,efgtoa@g
  2059   0028EC  C589  F585         	movff	efgtoa@u+1,efgtoa@g+1
  2060   0028F0  C58A  F586         	movff	efgtoa@u+2,efgtoa@g+2
  2061   0028F4  C58B  F587         	movff	efgtoa@u+3,efgtoa@g+3
  2062                           
  2063                           ;C:\Program Files\Microchip\xc8\v2.40\pic\sources\c99\common\doprnt.c: 585:   }
  2064   0028F8  EFD5  F014         	goto	i2l800
  2065   0028FC                     i2l2860:
  2066                           
  2067                           ;C:\Program Files\Microchip\xc8\v2.40\pic\sources\c99\common\doprnt.c: 588:     u.f = u.
      +                          f/10.0;
  2068   0028FC  C588  F501         	movff	efgtoa@u,___fldiv@b
  2069   002900  C589  F502         	movff	efgtoa@u+1,___fldiv@b+1
  2070   002904  C58A  F503         	movff	efgtoa@u+2,___fldiv@b+2
  2071   002908  C58B  F504         	movff	efgtoa@u+3,___fldiv@b+3
  2072   00290C  0E00               	movlw	0
  2073   00290E  6E05               	movwf	___fldiv@a^(0+1280),c
  2074   002910  0E00               	movlw	0
  2075   002912  6E06               	movwf	(___fldiv@a+1)^(0+1280),c
  2076   002914  0E20               	movlw	32
  2077   002916  6E07               	movwf	(___fldiv@a+2)^(0+1280),c
  2078   002918  0E41               	movlw	65
  2079   00291A  6E08               	movwf	(___fldiv@a+3)^(0+1280),c
  2080   00291C  EC7F  F01C         	call	___fldiv	;wreg free
  2081   002920  C501  F588         	movff	?___fldiv,efgtoa@u
  2082   002924  C502  F589         	movff	?___fldiv+1,efgtoa@u+1
  2083   002928  C503  F58A         	movff	?___fldiv+2,efgtoa@u+2
  2084   00292C  C504  F58B         	movff	?___fldiv+3,efgtoa@u+3
  2085   002930                     
  2086                           ;C:\Program Files\Microchip\xc8\v2.40\pic\sources\c99\common\doprnt.c: 589:     --e;
  2087   002930  0105               	movlb	5	; () banked
  2088   002932  076F               	decf	efgtoa@e& (0+255),f,b
  2089   002934  A0D8               	btfss	status,0,c
  2090   002936  0770               	decf	(efgtoa@e+1)& (0+255),f,b
  2091   002938                     
  2092                           ; BSR set to: 5
  2093                           ;C:\Program Files\Microchip\xc8\v2.40\pic\sources\c99\common\doprnt.c: 590:     if ((lab
      +                          s((g).u-(u).u) <= 1)) {
  2094   002938  5188               	movf	efgtoa@u& (0+255),w,b
  2095   00293A  5D84               	subwf	efgtoa@g& (0+255),w,b
  2096   00293C  6E01               	movwf	labs@a^(0+1280),c
  2097   00293E  5189               	movf	(efgtoa@u+1)& (0+255),w,b
  2098   002940  5985               	subwfb	(efgtoa@g+1)& (0+255),w,b
  2099   002942  6E02               	movwf	(labs@a+1)^(0+1280),c
  2100   002944  518A               	movf	(efgtoa@u+2)& (0+255),w,b
  2101   002946  5986               	subwfb	(efgtoa@g+2)& (0+255),w,b
  2102   002948  6E03               	movwf	(labs@a+2)^(0+1280),c
  2103   00294A  518B               	movf	(efgtoa@u+3)& (0+255),w,b
  2104   00294C  5987               	subwfb	(efgtoa@g+3)& (0+255),w,b
  2105   00294E  6E04               	movwf	(labs@a+3)^(0+1280),c
  2106   002950  EC74  F024         	call	_labs	;wreg free
  2107   002954  BE04               	btfsc	(?_labs+3)^(0+1280),7,c
  2108   002956  EFBA  F014         	goto	i2u306_40
  2109   00295A  5004               	movf	(?_labs+3)^(0+1280),w,c
  2110   00295C  1003               	iorwf	(?_labs+2)^(0+1280),w,c
  2111   00295E  1002               	iorwf	(?_labs+1)^(0+1280),w,c
  2112   002960  E107               	bnz	i2u306_41
  2113   002962  0E02               	movlw	2
  2114   002964  5C01               	subwf	?_labs^(0+1280),w,c
  2115   002966  B0D8               	btfsc	status,0,c
  2116   002968  EFB8  F014         	goto	i2u306_41
  2117   00296C  EFBA  F014         	goto	i2u306_40
  2118   002970                     i2u306_41:
  2119   002970  EFBC  F014         	goto	i2l2868
  2120   002974                     i2u306_40:
  2121   002974  EF74  F014         	goto	i2l2858
  2122   002978                     i2l2868:
  2123                           
  2124                           ;C:\Program Files\Microchip\xc8\v2.40\pic\sources\c99\common\doprnt.c: 587:    while (g.
      +                          f < u.f) {
  2125   002978  C584  F528         	movff	efgtoa@g,___flge@ff1
  2126   00297C  C585  F529         	movff	efgtoa@g+1,___flge@ff1+1
  2127   002980  C586  F52A         	movff	efgtoa@g+2,___flge@ff1+2
  2128   002984  C587  F52B         	movff	efgtoa@g+3,___flge@ff1+3
  2129   002988  C588  F52C         	movff	efgtoa@u,___flge@ff2
  2130   00298C  C589  F52D         	movff	efgtoa@u+1,___flge@ff2+1
  2131   002990  C58A  F52E         	movff	efgtoa@u+2,___flge@ff2+2
  2132   002994  C58B  F52F         	movff	efgtoa@u+3,___flge@ff2+3
  2133   002998  ECCA  F021         	call	___flge	;wreg free
  2134   00299C  A0D8               	btfss	status,0,c
  2135   00299E  EFD3  F014         	goto	i2u307_41
  2136   0029A2  EFD5  F014         	goto	i2u307_40
  2137   0029A6                     i2u307_41:
  2138   0029A6  EF7E  F014         	goto	i2l2860
  2139   0029AA                     i2u307_40:
  2140   0029AA                     i2l800:
  2141                           
  2142                           ;C:\Program Files\Microchip\xc8\v2.40\pic\sources\c99\common\doprnt.c: 602:  mode = c;
  2143   0029AA  C53A  F569         	movff	efgtoa@c,efgtoa@mode
  2144                           
  2145                           ;C:\Program Files\Microchip\xc8\v2.40\pic\sources\c99\common\doprnt.c: 604:     nmode = 
      +                          mode;
  2146   0029AE  C569  F56A         	movff	efgtoa@mode,efgtoa@nmode
  2147   0029B2                     
  2148                           ;C:\Program Files\Microchip\xc8\v2.40\pic\sources\c99\common\doprnt.c: 614:  {;C:\Progra
      +                          m Files\Microchip\xc8\v2.40\pic\sources\c99\common\doprnt.c: 615:         p = (prec < 0)
      +                           ? 6 : prec;
  2149   0029B2  BE5E               	btfsc	(_prec+1)^(0+1280),7,c
  2150   0029B4  EFDE  F014         	goto	i2u308_41
  2151   0029B8  EFE0  F014         	goto	i2u308_40
  2152   0029BC                     i2u308_41:
  2153   0029BC  EFE6  F014         	goto	i2l2874
  2154   0029C0                     i2u308_40:
  2155   0029C0  C55D  F562         	movff	_prec,efgtoa@p
  2156   0029C4  C55E  F563         	movff	_prec+1,efgtoa@p+1
  2157   0029C8  EFEB  F014         	goto	i2l2876
  2158   0029CC                     i2l2874:
  2159   0029CC  0E00               	movlw	0
  2160   0029CE  0105               	movlb	5	; () banked
  2161   0029D0  6F63               	movwf	(efgtoa@p+1)& (0+255),b
  2162   0029D2  0E06               	movlw	6
  2163   0029D4  6F62               	movwf	efgtoa@p& (0+255),b
  2164   0029D6                     i2l2876:
  2165                           
  2166                           ;C:\Program Files\Microchip\xc8\v2.40\pic\sources\c99\common\doprnt.c: 616:     };C:\Pro
      +                          gram Files\Microchip\xc8\v2.40\pic\sources\c99\common\doprnt.c: 630:     m = p;
  2167   0029D6  C562  F56D         	movff	efgtoa@p,efgtoa@m
  2168   0029DA  C563  F56E         	movff	efgtoa@p+1,efgtoa@m+1
  2169   0029DE                     
  2170                           ;C:\Program Files\Microchip\xc8\v2.40\pic\sources\c99\common\doprnt.c: 634:  {;C:\Progra
      +                          m Files\Microchip\xc8\v2.40\pic\sources\c99\common\doprnt.c: 635:         ++m;
  2171   0029DE  0105               	movlb	5	; () banked
  2172   0029E0  4B6D               	infsnz	efgtoa@m& (0+255),f,b
  2173   0029E2  2B6E               	incf	(efgtoa@m+1)& (0+255),f,b
  2174   0029E4                     
  2175                           ; BSR set to: 5
  2176                           ;C:\Program Files\Microchip\xc8\v2.40\pic\sources\c99\common\doprnt.c: 636:     };C:\Pro
      +                          gram Files\Microchip\xc8\v2.40\pic\sources\c99\common\doprnt.c: 640:     if (nmode == 'f
      +                          ') {
  2177   0029E4  0E66               	movlw	102
  2178   0029E6  196A               	xorwf	efgtoa@nmode& (0+255),w,b
  2179   0029E8  A4D8               	btfss	status,2,c
  2180   0029EA  EFF9  F014         	goto	i2u309_41
  2181   0029EE  EFFB  F014         	goto	i2u309_40
  2182   0029F2                     i2u309_41:
  2183   0029F2  EF1B  F015         	goto	i2l2890
  2184   0029F6                     i2u309_40:
  2185   0029F6                     
  2186                           ; BSR set to: 5
  2187                           ;C:\Program Files\Microchip\xc8\v2.40\pic\sources\c99\common\doprnt.c: 641:         if (
      +                          e < 0) {
  2188   0029F6  BF70               	btfsc	(efgtoa@e+1)& (0+255),7,b
  2189   0029F8  EF02  F015         	goto	i2u310_40
  2190   0029FC  EF00  F015         	goto	i2u310_41
  2191   002A00                     i2u310_41:
  2192   002A00  EF0E  F015         	goto	i2l2886
  2193   002A04                     i2u310_40:
  2194   002A04                     
  2195                           ; BSR set to: 5
  2196                           ;C:\Program Files\Microchip\xc8\v2.40\pic\sources\c99\common\doprnt.c: 642:             
      +                          u.f = 1.0;
  2197   002A04  0E00               	movlw	0
  2198   002A06  6F88               	movwf	efgtoa@u& (0+255),b
  2199   002A08  0E00               	movlw	0
  2200   002A0A  6F89               	movwf	(efgtoa@u+1)& (0+255),b
  2201   002A0C  0E80               	movlw	128
  2202   002A0E  6F8A               	movwf	(efgtoa@u+2)& (0+255),b
  2203   002A10  0E3F               	movlw	63
  2204   002A12  6F8B               	movwf	(efgtoa@u+3)& (0+255),b
  2205                           
  2206                           ;C:\Program Files\Microchip\xc8\v2.40\pic\sources\c99\common\doprnt.c: 643:             
      +                          e = 0;
  2207   002A14  0E00               	movlw	0
  2208   002A16  6F70               	movwf	(efgtoa@e+1)& (0+255),b
  2209   002A18  0E00               	movlw	0
  2210   002A1A  6F6F               	movwf	efgtoa@e& (0+255),b
  2211   002A1C                     i2l2886:
  2212                           
  2213                           ; BSR set to: 5
  2214                           ;C:\Program Files\Microchip\xc8\v2.40\pic\sources\c99\common\doprnt.c: 645:         if (
      +                          !(mode == 'g')) {
  2215   002A1C  0E67               	movlw	103
  2216   002A1E  1969               	xorwf	efgtoa@mode& (0+255),w,b
  2217   002A20  B4D8               	btfsc	status,2,c
  2218   002A22  EF15  F015         	goto	i2u311_41
  2219   002A26  EF17  F015         	goto	i2u311_40
  2220   002A2A                     i2u311_41:
  2221   002A2A  EF1B  F015         	goto	i2l2890
  2222   002A2E                     i2u311_40:
  2223   002A2E                     
  2224                           ; BSR set to: 5
  2225                           ;C:\Program Files\Microchip\xc8\v2.40\pic\sources\c99\common\doprnt.c: 646:             
      +                          m += e;
  2226   002A2E  516F               	movf	efgtoa@e& (0+255),w,b
  2227   002A30  276D               	addwf	efgtoa@m& (0+255),f,b
  2228   002A32  5170               	movf	(efgtoa@e+1)& (0+255),w,b
  2229   002A34  236E               	addwfc	(efgtoa@m+1)& (0+255),f,b
  2230   002A36                     i2l2890:
  2231                           
  2232                           ; BSR set to: 5
  2233                           ;C:\Program Files\Microchip\xc8\v2.40\pic\sources\c99\common\doprnt.c: 652:     i = 0;
  2234   002A36  0E00               	movlw	0
  2235   002A38  6F78               	movwf	(efgtoa@i+1)& (0+255),b
  2236   002A3A  0E00               	movlw	0
  2237   002A3C  6F77               	movwf	efgtoa@i& (0+255),b
  2238   002A3E                     
  2239                           ; BSR set to: 5
  2240                           ;C:\Program Files\Microchip\xc8\v2.40\pic\sources\c99\common\doprnt.c: 653:     h = g.f;
  2241   002A3E  C584  F579         	movff	efgtoa@g,efgtoa@h
  2242   002A42  C585  F57A         	movff	efgtoa@g+1,efgtoa@h+1
  2243   002A46  C586  F57B         	movff	efgtoa@g+2,efgtoa@h+2
  2244   002A4A  C587  F57C         	movff	efgtoa@g+3,efgtoa@h+3
  2245   002A4E                     
  2246                           ; BSR set to: 5
  2247                           ;C:\Program Files\Microchip\xc8\v2.40\pic\sources\c99\common\doprnt.c: 654:     ou = u;
  2248   002A4E  C588  F573         	movff	efgtoa@u,efgtoa@ou
  2249   002A52  C589  F574         	movff	efgtoa@u+1,efgtoa@ou+1
  2250   002A56  C58A  F575         	movff	efgtoa@u+2,efgtoa@ou+2
  2251   002A5A  C58B  F576         	movff	efgtoa@u+3,efgtoa@ou+3
  2252                           
  2253                           ;C:\Program Files\Microchip\xc8\v2.40\pic\sources\c99\common\doprnt.c: 655:     while (i
      +                           < m) {
  2254   002A5E  EFAC  F015         	goto	i2l2904
  2255   002A62                     i2l2896:
  2256                           
  2257                           ; BSR set to: 5
  2258                           ;C:\Program Files\Microchip\xc8\v2.40\pic\sources\c99\common\doprnt.c: 656:         l = 
      +                          floorf(h/u.f);
  2259   002A62  C579  F501         	movff	efgtoa@h,___fldiv@b
  2260   002A66  C57A  F502         	movff	efgtoa@h+1,___fldiv@b+1
  2261   002A6A  C57B  F503         	movff	efgtoa@h+2,___fldiv@b+2
  2262   002A6E  C57C  F504         	movff	efgtoa@h+3,___fldiv@b+3
  2263   002A72  C588  F505         	movff	efgtoa@u,___fldiv@a
  2264   002A76  C589  F506         	movff	efgtoa@u+1,___fldiv@a+1
  2265   002A7A  C58A  F507         	movff	efgtoa@u+2,___fldiv@a+2
  2266   002A7E  C58B  F508         	movff	efgtoa@u+3,___fldiv@a+3
  2267   002A82  EC7F  F01C         	call	___fldiv	;wreg free
  2268   002A86  C501  F51A         	movff	?___fldiv,floorf@x
  2269   002A8A  C502  F51B         	movff	?___fldiv+1,floorf@x+1
  2270   002A8E  C503  F51C         	movff	?___fldiv+2,floorf@x+2
  2271   002A92  C504  F51D         	movff	?___fldiv+3,floorf@x+3
  2272   002A96  EC64  F01F         	call	_floorf	;wreg free
  2273   002A9A  C51A  F57D         	movff	?_floorf,efgtoa@l
  2274   002A9E  C51B  F57E         	movff	?_floorf+1,efgtoa@l+1
  2275   002AA2  C51C  F57F         	movff	?_floorf+2,efgtoa@l+2
  2276   002AA6  C51D  F580         	movff	?_floorf+3,efgtoa@l+3
  2277                           
  2278                           ;C:\Program Files\Microchip\xc8\v2.40\pic\sources\c99\common\doprnt.c: 657:         d = 
      +                          (int)l;
  2279   002AAA  C57D  F501         	movff	efgtoa@l,___fltol@f1
  2280   002AAE  C57E  F502         	movff	efgtoa@l+1,___fltol@f1+1
  2281   002AB2  C57F  F503         	movff	efgtoa@l+2,___fltol@f1+2
  2282   002AB6  C580  F504         	movff	efgtoa@l+3,___fltol@f1+3
  2283   002ABA  EC47  F021         	call	___fltol	;wreg free
  2284   002ABE  C501  F56B         	movff	?___fltol,efgtoa@d
  2285   002AC2  C502  F56C         	movff	?___fltol+1,efgtoa@d+1
  2286   002AC6                     
  2287                           ;C:\Program Files\Microchip\xc8\v2.40\pic\sources\c99\common\doprnt.c: 658:         h -=
      +                           l*u.f;
  2288   002AC6  C579  F528         	movff	efgtoa@h,___flsub@b
  2289   002ACA  C57A  F529         	movff	efgtoa@h+1,___flsub@b+1
  2290   002ACE  C57B  F52A         	movff	efgtoa@h+2,___flsub@b+2
  2291   002AD2  C57C  F52B         	movff	efgtoa@h+3,___flsub@b+3
  2292   002AD6  C57D  F513         	movff	efgtoa@l,___flmul@a
  2293   002ADA  C57E  F514         	movff	efgtoa@l+1,___flmul@a+1
  2294   002ADE  C57F  F515         	movff	efgtoa@l+2,___flmul@a+2
  2295   002AE2  C580  F516         	movff	efgtoa@l+3,___flmul@a+3
  2296   002AE6  C588  F50F         	movff	efgtoa@u,___flmul@b
  2297   002AEA  C589  F510         	movff	efgtoa@u+1,___flmul@b+1
  2298   002AEE  C58A  F511         	movff	efgtoa@u+2,___flmul@b+2
  2299   002AF2  C58B  F512         	movff	efgtoa@u+3,___flmul@b+3
  2300   002AF6  EC6A  F01A         	call	___flmul	;wreg free
  2301   002AFA  C50F  F52C         	movff	?___flmul,___flsub@a
  2302   002AFE  C510  F52D         	movff	?___flmul+1,___flsub@a+1
  2303   002B02  C511  F52E         	movff	?___flmul+2,___flsub@a+2
  2304   002B06  C512  F52F         	movff	?___flmul+3,___flsub@a+3
  2305   002B0A  EC23  F025         	call	___flsub	;wreg free
  2306   002B0E  C528  F579         	movff	?___flsub,efgtoa@h
  2307   002B12  C529  F57A         	movff	?___flsub+1,efgtoa@h+1
  2308   002B16  C52A  F57B         	movff	?___flsub+2,efgtoa@h+2
  2309   002B1A  C52B  F57C         	movff	?___flsub+3,efgtoa@h+3
  2310   002B1E                     
  2311                           ;C:\Program Files\Microchip\xc8\v2.40\pic\sources\c99\common\doprnt.c: 659:         u.f 
      +                          = u.f/10.0;
  2312   002B1E  C588  F501         	movff	efgtoa@u,___fldiv@b
  2313   002B22  C589  F502         	movff	efgtoa@u+1,___fldiv@b+1
  2314   002B26  C58A  F503         	movff	efgtoa@u+2,___fldiv@b+2
  2315   002B2A  C58B  F504         	movff	efgtoa@u+3,___fldiv@b+3
  2316   002B2E  0E00               	movlw	0
  2317   002B30  6E05               	movwf	___fldiv@a^(0+1280),c
  2318   002B32  0E00               	movlw	0
  2319   002B34  6E06               	movwf	(___fldiv@a+1)^(0+1280),c
  2320   002B36  0E20               	movlw	32
  2321   002B38  6E07               	movwf	(___fldiv@a+2)^(0+1280),c
  2322   002B3A  0E41               	movlw	65
  2323   002B3C  6E08               	movwf	(___fldiv@a+3)^(0+1280),c
  2324   002B3E  EC7F  F01C         	call	___fldiv	;wreg free
  2325   002B42  C501  F588         	movff	?___fldiv,efgtoa@u
  2326   002B46  C502  F589         	movff	?___fldiv+1,efgtoa@u+1
  2327   002B4A  C503  F58A         	movff	?___fldiv+2,efgtoa@u+2
  2328   002B4E  C504  F58B         	movff	?___fldiv+3,efgtoa@u+3
  2329   002B52                     
  2330                           ;C:\Program Files\Microchip\xc8\v2.40\pic\sources\c99\common\doprnt.c: 660:         ++i;
  2331   002B52  0105               	movlb	5	; () banked
  2332   002B54  4B77               	infsnz	efgtoa@i& (0+255),f,b
  2333   002B56  2B78               	incf	(efgtoa@i+1)& (0+255),f,b
  2334   002B58                     i2l2904:
  2335                           
  2336                           ; BSR set to: 5
  2337                           ;C:\Program Files\Microchip\xc8\v2.40\pic\sources\c99\common\doprnt.c: 655:     while (i
      +                           < m) {
  2338   002B58  516D               	movf	efgtoa@m& (0+255),w,b
  2339   002B5A  5D77               	subwf	efgtoa@i& (0+255),w,b
  2340   002B5C  5178               	movf	(efgtoa@i+1)& (0+255),w,b
  2341   002B5E  0A80               	xorlw	128
  2342   002B60  6E3B               	movwf	??_efgtoa^(0+1280),c
  2343   002B62  516E               	movf	(efgtoa@m+1)& (0+255),w,b
  2344   002B64  0A80               	xorlw	128
  2345   002B66  583B               	subwfb	??_efgtoa^(0+1280),w,c
  2346   002B68  A0D8               	btfss	status,0,c
  2347   002B6A  EFB9  F015         	goto	i2u312_41
  2348   002B6E  EFBB  F015         	goto	i2u312_40
  2349   002B72                     i2u312_41:
  2350   002B72  EF31  F015         	goto	i2l2896
  2351   002B76                     i2u312_40:
  2352   002B76                     
  2353                           ; BSR set to: 5
  2354                           ;C:\Program Files\Microchip\xc8\v2.40\pic\sources\c99\common\doprnt.c: 664:     l = u.f*
      +                          5.0;
  2355   002B76  C588  F50F         	movff	efgtoa@u,___flmul@b
  2356   002B7A  C589  F510         	movff	efgtoa@u+1,___flmul@b+1
  2357   002B7E  C58A  F511         	movff	efgtoa@u+2,___flmul@b+2
  2358   002B82  C58B  F512         	movff	efgtoa@u+3,___flmul@b+3
  2359   002B86  0E00               	movlw	0
  2360   002B88  6E13               	movwf	___flmul@a^(0+1280),c
  2361   002B8A  0E00               	movlw	0
  2362   002B8C  6E14               	movwf	(___flmul@a+1)^(0+1280),c
  2363   002B8E  0EA0               	movlw	160
  2364   002B90  6E15               	movwf	(___flmul@a+2)^(0+1280),c
  2365   002B92  0E40               	movlw	64
  2366   002B94  6E16               	movwf	(___flmul@a+3)^(0+1280),c
  2367   002B96  EC6A  F01A         	call	___flmul	;wreg free
  2368   002B9A  C50F  F57D         	movff	?___flmul,efgtoa@l
  2369   002B9E  C510  F57E         	movff	?___flmul+1,efgtoa@l+1
  2370   002BA2  C511  F57F         	movff	?___flmul+2,efgtoa@l+2
  2371   002BA6  C512  F580         	movff	?___flmul+3,efgtoa@l+3
  2372   002BAA                     
  2373                           ;C:\Program Files\Microchip\xc8\v2.40\pic\sources\c99\common\doprnt.c: 665:     if (h < 
      +                          l) {
  2374   002BAA  C579  F528         	movff	efgtoa@h,___flge@ff1
  2375   002BAE  C57A  F529         	movff	efgtoa@h+1,___flge@ff1+1
  2376   002BB2  C57B  F52A         	movff	efgtoa@h+2,___flge@ff1+2
  2377   002BB6  C57C  F52B         	movff	efgtoa@h+3,___flge@ff1+3
  2378   002BBA  C57D  F52C         	movff	efgtoa@l,___flge@ff2
  2379   002BBE  C57E  F52D         	movff	efgtoa@l+1,___flge@ff2+1
  2380   002BC2  C57F  F52E         	movff	efgtoa@l+2,___flge@ff2+2
  2381   002BC6  C580  F52F         	movff	efgtoa@l+3,___flge@ff2+3
  2382   002BCA  ECCA  F021         	call	___flge	;wreg free
  2383   002BCE  B0D8               	btfsc	status,0,c
  2384   002BD0  EFEC  F015         	goto	i2u313_41
  2385   002BD4  EFEE  F015         	goto	i2u313_40
  2386   002BD8                     i2u313_41:
  2387   002BD8  EFF9  F015         	goto	i2l2912
  2388   002BDC                     i2u313_40:
  2389   002BDC                     
  2390                           ;C:\Program Files\Microchip\xc8\v2.40\pic\sources\c99\common\doprnt.c: 666:         l = 
      +                          0.0;
  2391   002BDC  0E00               	movlw	0
  2392   002BDE  0105               	movlb	5	; () banked
  2393   002BE0  6F7D               	movwf	efgtoa@l& (0+255),b
  2394   002BE2  0E00               	movlw	0
  2395   002BE4  6F7E               	movwf	(efgtoa@l+1)& (0+255),b
  2396   002BE6  0E00               	movlw	0
  2397   002BE8  6F7F               	movwf	(efgtoa@l+2)& (0+255),b
  2398   002BEA  0E00               	movlw	0
  2399   002BEC  6F80               	movwf	(efgtoa@l+3)& (0+255),b
  2400                           
  2401                           ;C:\Program Files\Microchip\xc8\v2.40\pic\sources\c99\common\doprnt.c: 667:     } else {
  2402   002BEE  EF22  F016         	goto	i2l2918
  2403   002BF2                     i2l2912:
  2404                           
  2405                           ;C:\Program Files\Microchip\xc8\v2.40\pic\sources\c99\common\doprnt.c: 669:         if (
      +                          (h == l) && !(d % 2)) {
  2406   002BF2  C579  F501         	movff	efgtoa@h,___fleq@ff1
  2407   002BF6  C57A  F502         	movff	efgtoa@h+1,___fleq@ff1+1
  2408   002BFA  C57B  F503         	movff	efgtoa@h+2,___fleq@ff1+2
  2409   002BFE  C57C  F504         	movff	efgtoa@h+3,___fleq@ff1+3
  2410   002C02  C57D  F505         	movff	efgtoa@l,___fleq@ff2
  2411   002C06  C57E  F506         	movff	efgtoa@l+1,___fleq@ff2+1
  2412   002C0A  C57F  F507         	movff	efgtoa@l+2,___fleq@ff2+2
  2413   002C0E  C580  F508         	movff	efgtoa@l+3,___fleq@ff2+3
  2414   002C12  ECA3  F023         	call	___fleq	;wreg free
  2415   002C16  A0D8               	btfss	status,0,c
  2416   002C18  EF10  F016         	goto	i2u314_41
  2417   002C1C  EF12  F016         	goto	i2u314_40
  2418   002C20                     i2u314_41:
  2419   002C20  EF22  F016         	goto	i2l2918
  2420   002C24                     i2u314_40:
  2421   002C24  0105               	movlb	5	; () banked
  2422   002C26  B16B               	btfsc	efgtoa@d& (0+255),0,b
  2423   002C28  EF18  F016         	goto	i2u315_41
  2424   002C2C  EF1A  F016         	goto	i2u315_40
  2425   002C30                     i2u315_41:
  2426   002C30  EF22  F016         	goto	i2l2918
  2427   002C34                     i2u315_40:
  2428   002C34                     
  2429                           ; BSR set to: 5
  2430                           ;C:\Program Files\Microchip\xc8\v2.40\pic\sources\c99\common\doprnt.c: 670:             
      +                          l = 0.0;
  2431   002C34  0E00               	movlw	0
  2432   002C36  6F7D               	movwf	efgtoa@l& (0+255),b
  2433   002C38  0E00               	movlw	0
  2434   002C3A  6F7E               	movwf	(efgtoa@l+1)& (0+255),b
  2435   002C3C  0E00               	movlw	0
  2436   002C3E  6F7F               	movwf	(efgtoa@l+2)& (0+255),b
  2437   002C40  0E00               	movlw	0
  2438   002C42  6F80               	movwf	(efgtoa@l+3)& (0+255),b
  2439   002C44                     i2l2918:
  2440                           
  2441                           ;C:\Program Files\Microchip\xc8\v2.40\pic\sources\c99\common\doprnt.c: 675:     h = g.f 
      +                          + l;
  2442   002C44  C584  F501         	movff	efgtoa@g,___fladd@b
  2443   002C48  C585  F502         	movff	efgtoa@g+1,___fladd@b+1
  2444   002C4C  C586  F503         	movff	efgtoa@g+2,___fladd@b+2
  2445   002C50  C587  F504         	movff	efgtoa@g+3,___fladd@b+3
  2446   002C54  C57D  F505         	movff	efgtoa@l,___fladd@a
  2447   002C58  C57E  F506         	movff	efgtoa@l+1,___fladd@a+1
  2448   002C5C  C57F  F507         	movff	efgtoa@l+2,___fladd@a+2
  2449   002C60  C580  F508         	movff	efgtoa@l+3,___fladd@a+3
  2450   002C64  EC0A  F018         	call	___fladd	;wreg free
  2451   002C68  C501  F579         	movff	?___fladd,efgtoa@h
  2452   002C6C  C502  F57A         	movff	?___fladd+1,efgtoa@h+1
  2453   002C70  C503  F57B         	movff	?___fladd+2,efgtoa@h+2
  2454   002C74  C504  F57C         	movff	?___fladd+3,efgtoa@h+3
  2455   002C78                     
  2456                           ;C:\Program Files\Microchip\xc8\v2.40\pic\sources\c99\common\doprnt.c: 677:  if (h >= (o
      +                          u.f*10.0)) {
  2457   002C78  C579  F528         	movff	efgtoa@h,___flge@ff1
  2458   002C7C  C57A  F529         	movff	efgtoa@h+1,___flge@ff1+1
  2459   002C80  C57B  F52A         	movff	efgtoa@h+2,___flge@ff1+2
  2460   002C84  C57C  F52B         	movff	efgtoa@h+3,___flge@ff1+3
  2461   002C88  0E00               	movlw	0
  2462   002C8A  6E13               	movwf	___flmul@a^(0+1280),c
  2463   002C8C  0E00               	movlw	0
  2464   002C8E  6E14               	movwf	(___flmul@a+1)^(0+1280),c
  2465   002C90  0E20               	movlw	32
  2466   002C92  6E15               	movwf	(___flmul@a+2)^(0+1280),c
  2467   002C94  0E41               	movlw	65
  2468   002C96  6E16               	movwf	(___flmul@a+3)^(0+1280),c
  2469   002C98  C573  F50F         	movff	efgtoa@ou,___flmul@b
  2470   002C9C  C574  F510         	movff	efgtoa@ou+1,___flmul@b+1
  2471   002CA0  C575  F511         	movff	efgtoa@ou+2,___flmul@b+2
  2472   002CA4  C576  F512         	movff	efgtoa@ou+3,___flmul@b+3
  2473   002CA8  EC6A  F01A         	call	___flmul	;wreg free
  2474   002CAC  C50F  F52C         	movff	?___flmul,___flge@ff2
  2475   002CB0  C510  F52D         	movff	?___flmul+1,___flge@ff2+1
  2476   002CB4  C511  F52E         	movff	?___flmul+2,___flge@ff2+2
  2477   002CB8  C512  F52F         	movff	?___flmul+3,___flge@ff2+3
  2478   002CBC  ECCA  F021         	call	___flge	;wreg free
  2479   002CC0  A0D8               	btfss	status,0,c
  2480   002CC2  EF65  F016         	goto	i2u316_41
  2481   002CC6  EF67  F016         	goto	i2u316_40
  2482   002CCA                     i2u316_41:
  2483   002CCA  EF90  F016         	goto	i2l2930
  2484   002CCE                     i2u316_40:
  2485   002CCE                     
  2486                           ;C:\Program Files\Microchip\xc8\v2.40\pic\sources\c99\common\doprnt.c: 678:   e++;
  2487   002CCE  0105               	movlb	5	; () banked
  2488   002CD0  4B6F               	infsnz	efgtoa@e& (0+255),f,b
  2489   002CD2  2B70               	incf	(efgtoa@e+1)& (0+255),f,b
  2490   002CD4                     
  2491                           ; BSR set to: 5
  2492                           ;C:\Program Files\Microchip\xc8\v2.40\pic\sources\c99\common\doprnt.c: 679:   ou.f *= 10
      +                          .0;
  2493   002CD4  C573  F50F         	movff	efgtoa@ou,___flmul@b
  2494   002CD8  C574  F510         	movff	efgtoa@ou+1,___flmul@b+1
  2495   002CDC  C575  F511         	movff	efgtoa@ou+2,___flmul@b+2
  2496   002CE0  C576  F512         	movff	efgtoa@ou+3,___flmul@b+3
  2497   002CE4  0E00               	movlw	0
  2498   002CE6  6E13               	movwf	___flmul@a^(0+1280),c
  2499   002CE8  0E00               	movlw	0
  2500   002CEA  6E14               	movwf	(___flmul@a+1)^(0+1280),c
  2501   002CEC  0E20               	movlw	32
  2502   002CEE  6E15               	movwf	(___flmul@a+2)^(0+1280),c
  2503   002CF0  0E41               	movlw	65
  2504   002CF2  6E16               	movwf	(___flmul@a+3)^(0+1280),c
  2505   002CF4  EC6A  F01A         	call	___flmul	;wreg free
  2506   002CF8  C50F  F573         	movff	?___flmul,efgtoa@ou
  2507   002CFC  C510  F574         	movff	?___flmul+1,efgtoa@ou+1
  2508   002D00  C511  F575         	movff	?___flmul+2,efgtoa@ou+2
  2509   002D04  C512  F576         	movff	?___flmul+3,efgtoa@ou+3
  2510   002D08                     
  2511                           ;C:\Program Files\Microchip\xc8\v2.40\pic\sources\c99\common\doprnt.c: 681:   if (nmode 
      +                          == 'f') {
  2512   002D08  0E66               	movlw	102
  2513   002D0A  0105               	movlb	5	; () banked
  2514   002D0C  196A               	xorwf	efgtoa@nmode& (0+255),w,b
  2515   002D0E  A4D8               	btfss	status,2,c
  2516   002D10  EF8C  F016         	goto	i2u317_41
  2517   002D14  EF8E  F016         	goto	i2u317_40
  2518   002D18                     i2u317_41:
  2519   002D18  EF90  F016         	goto	i2l2930
  2520   002D1C                     i2u317_40:
  2521   002D1C                     
  2522                           ; BSR set to: 5
  2523                           ;C:\Program Files\Microchip\xc8\v2.40\pic\sources\c99\common\doprnt.c: 683:    m++;
  2524   002D1C  4B6D               	infsnz	efgtoa@m& (0+255),f,b
  2525   002D1E  2B6E               	incf	(efgtoa@m+1)& (0+255),f,b
  2526   002D20                     i2l2930:
  2527                           
  2528                           ;C:\Program Files\Microchip\xc8\v2.40\pic\sources\c99\common\doprnt.c: 689:     u = ou;
  2529   002D20  C573  F588         	movff	efgtoa@ou,efgtoa@u
  2530   002D24  C574  F589         	movff	efgtoa@ou+1,efgtoa@u+1
  2531   002D28  C575  F58A         	movff	efgtoa@ou+2,efgtoa@u+2
  2532   002D2C  C576  F58B         	movff	efgtoa@ou+3,efgtoa@u+3
  2533   002D30                     
  2534                           ;C:\Program Files\Microchip\xc8\v2.40\pic\sources\c99\common\doprnt.c: 693:  ne = e;
  2535   002D30  C56F  F560         	movff	efgtoa@e,efgtoa@ne
  2536   002D34  C570  F561         	movff	efgtoa@e+1,efgtoa@ne+1
  2537   002D38                     
  2538                           ;C:\Program Files\Microchip\xc8\v2.40\pic\sources\c99\common\doprnt.c: 695:     pp = 0;
  2539   002D38  0E00               	movlw	0
  2540   002D3A  0105               	movlb	5	; () banked
  2541   002D3C  6F68               	movwf	efgtoa@pp& (0+255),b
  2542   002D3E                     
  2543                           ; BSR set to: 5
  2544                           ;C:\Program Files\Microchip\xc8\v2.40\pic\sources\c99\common\doprnt.c: 696:     t = 0;
  2545   002D3E  0E00               	movlw	0
  2546   002D40  6F65               	movwf	(efgtoa@t+1)& (0+255),b
  2547   002D42  0E00               	movlw	0
  2548   002D44  6F64               	movwf	efgtoa@t& (0+255),b
  2549   002D46                     
  2550                           ; BSR set to: 5
  2551                           ;C:\Program Files\Microchip\xc8\v2.40\pic\sources\c99\common\doprnt.c: 697:     i = 0;
  2552   002D46  0E00               	movlw	0
  2553   002D48  6F78               	movwf	(efgtoa@i+1)& (0+255),b
  2554   002D4A  0E00               	movlw	0
  2555   002D4C  6F77               	movwf	efgtoa@i& (0+255),b
  2556                           
  2557                           ;C:\Program Files\Microchip\xc8\v2.40\pic\sources\c99\common\doprnt.c: 698:     while ((
      +                          i < m) && (n < (80 - 5))) {
  2558   002D4E  EF8E  F017         	goto	i2l2980
  2559   002D52                     i2l2940:
  2560                           
  2561                           ; BSR set to: 5
  2562                           ;C:\Program Files\Microchip\xc8\v2.40\pic\sources\c99\common\doprnt.c: 699:         l = 
      +                          floorf(h/u.f);
  2563   002D52  C579  F501         	movff	efgtoa@h,___fldiv@b
  2564   002D56  C57A  F502         	movff	efgtoa@h+1,___fldiv@b+1
  2565   002D5A  C57B  F503         	movff	efgtoa@h+2,___fldiv@b+2
  2566   002D5E  C57C  F504         	movff	efgtoa@h+3,___fldiv@b+3
  2567   002D62  C588  F505         	movff	efgtoa@u,___fldiv@a
  2568   002D66  C589  F506         	movff	efgtoa@u+1,___fldiv@a+1
  2569   002D6A  C58A  F507         	movff	efgtoa@u+2,___fldiv@a+2
  2570   002D6E  C58B  F508         	movff	efgtoa@u+3,___fldiv@a+3
  2571   002D72  EC7F  F01C         	call	___fldiv	;wreg free
  2572   002D76  C501  F51A         	movff	?___fldiv,floorf@x
  2573   002D7A  C502  F51B         	movff	?___fldiv+1,floorf@x+1
  2574   002D7E  C503  F51C         	movff	?___fldiv+2,floorf@x+2
  2575   002D82  C504  F51D         	movff	?___fldiv+3,floorf@x+3
  2576   002D86  EC64  F01F         	call	_floorf	;wreg free
  2577   002D8A  C51A  F57D         	movff	?_floorf,efgtoa@l
  2578   002D8E  C51B  F57E         	movff	?_floorf+1,efgtoa@l+1
  2579   002D92  C51C  F57F         	movff	?_floorf+2,efgtoa@l+2
  2580   002D96  C51D  F580         	movff	?_floorf+3,efgtoa@l+3
  2581                           
  2582                           ;C:\Program Files\Microchip\xc8\v2.40\pic\sources\c99\common\doprnt.c: 700:         d = 
      +                          (int)l > 9 ? 9 : (int)l;
  2583   002D9A  C57D  F501         	movff	efgtoa@l,___fltol@f1
  2584   002D9E  C57E  F502         	movff	efgtoa@l+1,___fltol@f1+1
  2585   002DA2  C57F  F503         	movff	efgtoa@l+2,___fltol@f1+2
  2586   002DA6  C580  F504         	movff	efgtoa@l+3,___fltol@f1+3
  2587   002DAA  EC47  F021         	call	___fltol	;wreg free
  2588   002DAE  BE02               	btfsc	(?___fltol+1)^(0+1280),7,c
  2589   002DB0  EFE5  F016         	goto	i2u318_40
  2590   002DB4  5002               	movf	(?___fltol+1)^(0+1280),w,c
  2591   002DB6  E107               	bnz	i2u318_41
  2592   002DB8  0E0A               	movlw	10
  2593   002DBA  5C01               	subwf	?___fltol^(0+1280),w,c
  2594   002DBC  B0D8               	btfsc	status,0,c
  2595   002DBE  EFE3  F016         	goto	i2u318_41
  2596   002DC2  EFE5  F016         	goto	i2u318_40
  2597   002DC6                     i2u318_41:
  2598   002DC6  EFF5  F016         	goto	i2l2944
  2599   002DCA                     i2u318_40:
  2600   002DCA  C57D  F501         	movff	efgtoa@l,___fltol@f1
  2601   002DCE  C57E  F502         	movff	efgtoa@l+1,___fltol@f1+1
  2602   002DD2  C57F  F503         	movff	efgtoa@l+2,___fltol@f1+2
  2603   002DD6  C580  F504         	movff	efgtoa@l+3,___fltol@f1+3
  2604   002DDA  EC47  F021         	call	___fltol	;wreg free
  2605   002DDE  C501  F56B         	movff	?___fltol,efgtoa@d
  2606   002DE2  C502  F56C         	movff	?___fltol+1,efgtoa@d+1
  2607   002DE6  EFFA  F016         	goto	i2l830
  2608   002DEA                     i2l2944:
  2609   002DEA  0E00               	movlw	0
  2610   002DEC  0105               	movlb	5	; () banked
  2611   002DEE  6F6C               	movwf	(efgtoa@d+1)& (0+255),b
  2612   002DF0  0E09               	movlw	9
  2613   002DF2  6F6B               	movwf	efgtoa@d& (0+255),b
  2614   002DF4                     i2l830:
  2615                           
  2616                           ;C:\Program Files\Microchip\xc8\v2.40\pic\sources\c99\common\doprnt.c: 711:   {;C:\Progr
      +                          am Files\Microchip\xc8\v2.40\pic\sources\c99\common\doprnt.c: 712:             if (!pp &
      +                          & (ne < 0)) {
  2617   002DF4  0105               	movlb	5	; () banked
  2618   002DF6  5168               	movf	efgtoa@pp& (0+255),w,b
  2619   002DF8  A4D8               	btfss	status,2,c
  2620   002DFA  EF01  F017         	goto	i2u319_41
  2621   002DFE  EF03  F017         	goto	i2u319_40
  2622   002E02                     i2u319_41:
  2623   002E02  EF2B  F017         	goto	i2l2964
  2624   002E06                     i2u319_40:
  2625   002E06                     
  2626                           ; BSR set to: 5
  2627   002E06  BF61               	btfsc	(efgtoa@ne+1)& (0+255),7,b
  2628   002E08  EF0A  F017         	goto	i2u320_40
  2629   002E0C  EF08  F017         	goto	i2u320_41
  2630   002E10                     i2u320_41:
  2631   002E10  EF2B  F017         	goto	i2l2964
  2632   002E14                     i2u320_40:
  2633   002E14                     
  2634                           ; BSR set to: 5
  2635                           ;C:\Program Files\Microchip\xc8\v2.40\pic\sources\c99\common\doprnt.c: 713:             
      +                              dbuf[n++] = '.';
  2636   002E14  0E00               	movlw	low _dbuf
  2637   002E16  2582               	addwf	efgtoa@n& (0+255),w,b
  2638   002E18  6ED9               	movwf	fsr2l,c
  2639   002E1A  0E06               	movlw	high _dbuf
  2640   002E1C  2183               	addwfc	(efgtoa@n+1)& (0+255),w,b
  2641   002E1E  6EDA               	movwf	fsr2h,c
  2642   002E20  0E2E               	movlw	46
  2643   002E22  6EDF               	movwf	indf2,c
  2644   002E24                     
  2645                           ; BSR set to: 5
  2646   002E24  4B82               	infsnz	efgtoa@n& (0+255),f,b
  2647   002E26  2B83               	incf	(efgtoa@n+1)& (0+255),f,b
  2648   002E28                     
  2649                           ; BSR set to: 5
  2650                           ;C:\Program Files\Microchip\xc8\v2.40\pic\sources\c99\common\doprnt.c: 714:             
      +                              --w;
  2651   002E28  0771               	decf	efgtoa@w& (0+255),f,b
  2652   002E2A  A0D8               	btfss	status,0,c
  2653   002E2C  0772               	decf	(efgtoa@w+1)& (0+255),f,b
  2654   002E2E                     
  2655                           ; BSR set to: 5
  2656                           ;C:\Program Files\Microchip\xc8\v2.40\pic\sources\c99\common\doprnt.c: 715:             
      +                              pp = 1;
  2657   002E2E  0E01               	movlw	1
  2658   002E30  6F68               	movwf	efgtoa@pp& (0+255),b
  2659   002E32  EF2B  F017         	goto	i2l2964
  2660   002E36                     i2l2956:
  2661                           
  2662                           ; BSR set to: 5
  2663                           ;C:\Program Files\Microchip\xc8\v2.40\pic\sources\c99\common\doprnt.c: 718:             
      +                              dbuf[n++] = '0';
  2664   002E36  0E00               	movlw	low _dbuf
  2665   002E38  2582               	addwf	efgtoa@n& (0+255),w,b
  2666   002E3A  6ED9               	movwf	fsr2l,c
  2667   002E3C  0E06               	movlw	high _dbuf
  2668   002E3E  2183               	addwfc	(efgtoa@n+1)& (0+255),w,b
  2669   002E40  6EDA               	movwf	fsr2h,c
  2670   002E42  0E30               	movlw	48
  2671   002E44  6EDF               	movwf	indf2,c
  2672   002E46                     
  2673                           ; BSR set to: 5
  2674   002E46  4B82               	infsnz	efgtoa@n& (0+255),f,b
  2675   002E48  2B83               	incf	(efgtoa@n+1)& (0+255),f,b
  2676   002E4A                     
  2677                           ; BSR set to: 5
  2678                           ;C:\Program Files\Microchip\xc8\v2.40\pic\sources\c99\common\doprnt.c: 719:             
      +                              --w;
  2679   002E4A  0771               	decf	efgtoa@w& (0+255),f,b
  2680   002E4C  A0D8               	btfss	status,0,c
  2681   002E4E  0772               	decf	(efgtoa@w+1)& (0+255),f,b
  2682   002E50                     
  2683                           ; BSR set to: 5
  2684                           ;C:\Program Files\Microchip\xc8\v2.40\pic\sources\c99\common\doprnt.c: 720:             
      +                              --t;
  2685   002E50  0764               	decf	efgtoa@t& (0+255),f,b
  2686   002E52  A0D8               	btfss	status,0,c
  2687   002E54  0765               	decf	(efgtoa@t+1)& (0+255),f,b
  2688   002E56                     i2l2964:
  2689                           
  2690                           ; BSR set to: 5
  2691                           ;C:\Program Files\Microchip\xc8\v2.40\pic\sources\c99\common\doprnt.c: 717:             
      +                          while (t) {
  2692   002E56  5164               	movf	efgtoa@t& (0+255),w,b
  2693   002E58  1165               	iorwf	(efgtoa@t+1)& (0+255),w,b
  2694   002E5A  A4D8               	btfss	status,2,c
  2695   002E5C  EF32  F017         	goto	i2u321_41
  2696   002E60  EF34  F017         	goto	i2u321_40
  2697   002E64                     i2u321_41:
  2698   002E64  EF1B  F017         	goto	i2l2956
  2699   002E68                     i2u321_40:
  2700   002E68                     
  2701                           ; BSR set to: 5
  2702                           ;C:\Program Files\Microchip\xc8\v2.40\pic\sources\c99\common\doprnt.c: 722:             
      +                          dbuf[n++] = (char)((int)'0' + d);
  2703   002E68  0E00               	movlw	low _dbuf
  2704   002E6A  2582               	addwf	efgtoa@n& (0+255),w,b
  2705   002E6C  6ED9               	movwf	fsr2l,c
  2706   002E6E  0E06               	movlw	high _dbuf
  2707   002E70  2183               	addwfc	(efgtoa@n+1)& (0+255),w,b
  2708   002E72  6EDA               	movwf	fsr2h,c
  2709   002E74  516B               	movf	efgtoa@d& (0+255),w,b
  2710   002E76  0F30               	addlw	48
  2711   002E78  6EDF               	movwf	indf2,c
  2712   002E7A                     
  2713                           ; BSR set to: 5
  2714   002E7A  4B82               	infsnz	efgtoa@n& (0+255),f,b
  2715   002E7C  2B83               	incf	(efgtoa@n+1)& (0+255),f,b
  2716   002E7E                     
  2717                           ; BSR set to: 5
  2718                           ;C:\Program Files\Microchip\xc8\v2.40\pic\sources\c99\common\doprnt.c: 723:             
      +                          --w;
  2719   002E7E  0771               	decf	efgtoa@w& (0+255),f,b
  2720   002E80  A0D8               	btfss	status,0,c
  2721   002E82  0772               	decf	(efgtoa@w+1)& (0+255),f,b
  2722   002E84                     
  2723                           ; BSR set to: 5
  2724                           ;C:\Program Files\Microchip\xc8\v2.40\pic\sources\c99\common\doprnt.c: 724:         };C:
      +                          \Program Files\Microchip\xc8\v2.40\pic\sources\c99\common\doprnt.c: 725:         h -= l*
      +                          u.f;
  2725   002E84  C579  F528         	movff	efgtoa@h,___flsub@b
  2726   002E88  C57A  F529         	movff	efgtoa@h+1,___flsub@b+1
  2727   002E8C  C57B  F52A         	movff	efgtoa@h+2,___flsub@b+2
  2728   002E90  C57C  F52B         	movff	efgtoa@h+3,___flsub@b+3
  2729   002E94  C57D  F513         	movff	efgtoa@l,___flmul@a
  2730   002E98  C57E  F514         	movff	efgtoa@l+1,___flmul@a+1
  2731   002E9C  C57F  F515         	movff	efgtoa@l+2,___flmul@a+2
  2732   002EA0  C580  F516         	movff	efgtoa@l+3,___flmul@a+3
  2733   002EA4  C588  F50F         	movff	efgtoa@u,___flmul@b
  2734   002EA8  C589  F510         	movff	efgtoa@u+1,___flmul@b+1
  2735   002EAC  C58A  F511         	movff	efgtoa@u+2,___flmul@b+2
  2736   002EB0  C58B  F512         	movff	efgtoa@u+3,___flmul@b+3
  2737   002EB4  EC6A  F01A         	call	___flmul	;wreg free
  2738   002EB8  C50F  F52C         	movff	?___flmul,___flsub@a
  2739   002EBC  C510  F52D         	movff	?___flmul+1,___flsub@a+1
  2740   002EC0  C511  F52E         	movff	?___flmul+2,___flsub@a+2
  2741   002EC4  C512  F52F         	movff	?___flmul+3,___flsub@a+3
  2742   002EC8  EC23  F025         	call	___flsub	;wreg free
  2743   002ECC  C528  F579         	movff	?___flsub,efgtoa@h
  2744   002ED0  C529  F57A         	movff	?___flsub+1,efgtoa@h+1
  2745   002ED4  C52A  F57B         	movff	?___flsub+2,efgtoa@h+2
  2746   002ED8  C52B  F57C         	movff	?___flsub+3,efgtoa@h+3
  2747   002EDC                     
  2748                           ;C:\Program Files\Microchip\xc8\v2.40\pic\sources\c99\common\doprnt.c: 726:         u.f 
      +                          = u.f/10.0;
  2749   002EDC  C588  F501         	movff	efgtoa@u,___fldiv@b
  2750   002EE0  C589  F502         	movff	efgtoa@u+1,___fldiv@b+1
  2751   002EE4  C58A  F503         	movff	efgtoa@u+2,___fldiv@b+2
  2752   002EE8  C58B  F504         	movff	efgtoa@u+3,___fldiv@b+3
  2753   002EEC  0E00               	movlw	0
  2754   002EEE  6E05               	movwf	___fldiv@a^(0+1280),c
  2755   002EF0  0E00               	movlw	0
  2756   002EF2  6E06               	movwf	(___fldiv@a+1)^(0+1280),c
  2757   002EF4  0E20               	movlw	32
  2758   002EF6  6E07               	movwf	(___fldiv@a+2)^(0+1280),c
  2759   002EF8  0E41               	movlw	65
  2760   002EFA  6E08               	movwf	(___fldiv@a+3)^(0+1280),c
  2761   002EFC  EC7F  F01C         	call	___fldiv	;wreg free
  2762   002F00  C501  F588         	movff	?___fldiv,efgtoa@u
  2763   002F04  C502  F589         	movff	?___fldiv+1,efgtoa@u+1
  2764   002F08  C503  F58A         	movff	?___fldiv+2,efgtoa@u+2
  2765   002F0C  C504  F58B         	movff	?___fldiv+3,efgtoa@u+3
  2766   002F10                     
  2767                           ;C:\Program Files\Microchip\xc8\v2.40\pic\sources\c99\common\doprnt.c: 727:         --ne
      +                          ;
  2768   002F10  0105               	movlb	5	; () banked
  2769   002F12  0760               	decf	efgtoa@ne& (0+255),f,b
  2770   002F14  A0D8               	btfss	status,0,c
  2771   002F16  0761               	decf	(efgtoa@ne+1)& (0+255),f,b
  2772   002F18                     
  2773                           ; BSR set to: 5
  2774                           ;C:\Program Files\Microchip\xc8\v2.40\pic\sources\c99\common\doprnt.c: 728:         ++i;
  2775   002F18  4B77               	infsnz	efgtoa@i& (0+255),f,b
  2776   002F1A  2B78               	incf	(efgtoa@i+1)& (0+255),f,b
  2777   002F1C                     i2l2980:
  2778                           
  2779                           ; BSR set to: 5
  2780                           ;C:\Program Files\Microchip\xc8\v2.40\pic\sources\c99\common\doprnt.c: 698:     while ((
      +                          i < m) && (n < (80 - 5))) {
  2781   002F1C  516D               	movf	efgtoa@m& (0+255),w,b
  2782   002F1E  5D77               	subwf	efgtoa@i& (0+255),w,b
  2783   002F20  5178               	movf	(efgtoa@i+1)& (0+255),w,b
  2784   002F22  0A80               	xorlw	128
  2785   002F24  6E3B               	movwf	??_efgtoa^(0+1280),c
  2786   002F26  516E               	movf	(efgtoa@m+1)& (0+255),w,b
  2787   002F28  0A80               	xorlw	128
  2788   002F2A  583B               	subwfb	??_efgtoa^(0+1280),w,c
  2789   002F2C  B0D8               	btfsc	status,0,c
  2790   002F2E  EF9B  F017         	goto	i2u322_41
  2791   002F32  EF9D  F017         	goto	i2u322_40
  2792   002F36                     i2u322_41:
  2793   002F36  EFAB  F017         	goto	i2l2984
  2794   002F3A                     i2u322_40:
  2795   002F3A                     
  2796                           ; BSR set to: 5
  2797   002F3A  BF83               	btfsc	(efgtoa@n+1)& (0+255),7,b
  2798   002F3C  EFA9  F017         	goto	i2u323_41
  2799   002F40  5183               	movf	(efgtoa@n+1)& (0+255),w,b
  2800   002F42  E109               	bnz	i2u323_40
  2801   002F44  0E4B               	movlw	75
  2802   002F46  5D82               	subwf	efgtoa@n& (0+255),w,b
  2803   002F48  A0D8               	btfss	status,0,c
  2804   002F4A  EFA9  F017         	goto	i2u323_41
  2805   002F4E  EFAB  F017         	goto	i2u323_40
  2806   002F52                     i2u323_41:
  2807   002F52  EFA9  F016         	goto	i2l2940
  2808   002F56                     i2u323_40:
  2809   002F56                     i2l2984:
  2810                           
  2811                           ; BSR set to: 5
  2812                           ;C:\Program Files\Microchip\xc8\v2.40\pic\sources\c99\common\doprnt.c: 735:  i = sizeof(
      +                          dbuf) - 1;
  2813   002F56  0E00               	movlw	0
  2814   002F58  6F78               	movwf	(efgtoa@i+1)& (0+255),b
  2815   002F5A  0E4F               	movlw	79
  2816   002F5C  6F77               	movwf	efgtoa@i& (0+255),b
  2817   002F5E                     
  2818                           ; BSR set to: 5
  2819                           ;C:\Program Files\Microchip\xc8\v2.40\pic\sources\c99\common\doprnt.c: 736:     dbuf[i] 
      +                          = '\0';
  2820   002F5E  0E00               	movlw	low _dbuf
  2821   002F60  2577               	addwf	efgtoa@i& (0+255),w,b
  2822   002F62  6ED9               	movwf	fsr2l,c
  2823   002F64  0E06               	movlw	high _dbuf
  2824   002F66  2178               	addwfc	(efgtoa@i+1)& (0+255),w,b
  2825   002F68  6EDA               	movwf	fsr2h,c
  2826   002F6A  0E00               	movlw	0
  2827   002F6C  6EDF               	movwf	indf2,c
  2828   002F6E                     
  2829                           ; BSR set to: 5
  2830                           ;C:\Program Files\Microchip\xc8\v2.40\pic\sources\c99\common\doprnt.c: 767:  memcpy(&dbu
      +                          f[i-n], &dbuf[0], (size_t)n);
  2831   002F6E  0E00               	movlw	low _dbuf
  2832   002F70  6E3B               	movwf	??_efgtoa^(0+1280),c
  2833   002F72  0E06               	movlw	high _dbuf
  2834   002F74  6E3C               	movwf	(??_efgtoa+1)^(0+1280),c
  2835   002F76  5182               	movf	efgtoa@n& (0+255),w,b
  2836   002F78  5E3B               	subwf	??_efgtoa^(0+1280),f,c
  2837   002F7A  5183               	movf	(efgtoa@n+1)& (0+255),w,b
  2838   002F7C  5A3C               	subwfb	(??_efgtoa+1)^(0+1280),f,c
  2839   002F7E  5177               	movf	efgtoa@i& (0+255),w,b
  2840   002F80  243B               	addwf	??_efgtoa^(0+1280),w,c
  2841   002F82  6E01               	movwf	memcpy@d1^(0+1280),c
  2842   002F84  5178               	movf	(efgtoa@i+1)& (0+255),w,b
  2843   002F86  203C               	addwfc	(??_efgtoa+1)^(0+1280),w,c
  2844   002F88  6E02               	movwf	(memcpy@d1+1)^(0+1280),c
  2845   002F8A  0E00               	movlw	low _dbuf
  2846   002F8C  6E03               	movwf	memcpy@s1^(0+1280),c
  2847   002F8E  0E06               	movlw	high _dbuf
  2848   002F90  6E04               	movwf	(memcpy@s1+1)^(0+1280),c
  2849   002F92  C582  F505         	movff	efgtoa@n,memcpy@n
  2850   002F96  C583  F506         	movff	efgtoa@n+1,memcpy@n+1
  2851   002F9A  ECFB  F024         	call	_memcpy	;wreg free
  2852   002F9E                     
  2853                           ;C:\Program Files\Microchip\xc8\v2.40\pic\sources\c99\common\doprnt.c: 768:  n = i-n;
  2854   002F9E  0105               	movlb	5	; () banked
  2855   002FA0  5182               	movf	efgtoa@n& (0+255),w,b
  2856   002FA2  5D77               	subwf	efgtoa@i& (0+255),w,b
  2857   002FA4  6F82               	movwf	efgtoa@n& (0+255),b
  2858   002FA6  5183               	movf	(efgtoa@n+1)& (0+255),w,b
  2859   002FA8  5978               	subwfb	(efgtoa@i+1)& (0+255),w,b
  2860   002FAA  6F83               	movwf	(efgtoa@n+1)& (0+255),b
  2861   002FAC                     
  2862                           ; BSR set to: 5
  2863                           ;C:\Program Files\Microchip\xc8\v2.40\pic\sources\c99\common\doprnt.c: 769:  i = sign ==
      +                           0 ? 0 : 1;
  2864   002FAC  5181               	movf	efgtoa@sign& (0+255),w,b
  2865   002FAE  A4D8               	btfss	status,2,c
  2866   002FB0  EFDC  F017         	goto	i2u324_41
  2867   002FB4  EFDF  F017         	goto	i2u324_40
  2868   002FB8                     i2u324_41:
  2869   002FB8  0E01               	movlw	1
  2870   002FBA  EFE0  F017         	goto	i2u325_40
  2871   002FBE                     i2u324_40:
  2872   002FBE  0E00               	movlw	0
  2873   002FC0                     i2u325_40:
  2874   002FC0  6F77               	movwf	efgtoa@i& (0+255),b
  2875   002FC2  6B78               	clrf	(efgtoa@i+1)& (0+255),b
  2876   002FC4                     
  2877                           ; BSR set to: 5
  2878                           ;C:\Program Files\Microchip\xc8\v2.40\pic\sources\c99\common\doprnt.c: 780:  if (sign) {
  2879   002FC4  5181               	movf	efgtoa@sign& (0+255),w,b
  2880   002FC6  B4D8               	btfsc	status,2,c
  2881   002FC8  EFE8  F017         	goto	i2u326_41
  2882   002FCC  EFEA  F017         	goto	i2u326_40
  2883   002FD0                     i2u326_41:
  2884   002FD0  EFF5  F017         	goto	i2l2998
  2885   002FD4                     i2u326_40:
  2886   002FD4                     
  2887                           ; BSR set to: 5
  2888                           ;C:\Program Files\Microchip\xc8\v2.40\pic\sources\c99\common\doprnt.c: 781:   dbuf[--n] 
      +                          = sign;
  2889   002FD4  0782               	decf	efgtoa@n& (0+255),f,b
  2890   002FD6  A0D8               	btfss	status,0,c
  2891   002FD8  0783               	decf	(efgtoa@n+1)& (0+255),f,b
  2892   002FDA  0E00               	movlw	low _dbuf
  2893   002FDC  2582               	addwf	efgtoa@n& (0+255),w,b
  2894   002FDE  6ED9               	movwf	fsr2l,c
  2895   002FE0  0E06               	movlw	high _dbuf
  2896   002FE2  2183               	addwfc	(efgtoa@n+1)& (0+255),w,b
  2897   002FE4  6EDA               	movwf	fsr2h,c
  2898   002FE6  C581  F4DF         	movff	efgtoa@sign,indf2
  2899   002FEA                     i2l2998:
  2900                           
  2901                           ; BSR set to: 5
  2902                           ;C:\Program Files\Microchip\xc8\v2.40\pic\sources\c99\common\doprnt.c: 783:  w -= i;
  2903   002FEA  5177               	movf	efgtoa@i& (0+255),w,b
  2904   002FEC  5F71               	subwf	efgtoa@w& (0+255),f,b
  2905   002FEE  5178               	movf	(efgtoa@i+1)& (0+255),w,b
  2906   002FF0  5B72               	subwfb	(efgtoa@w+1)& (0+255),f,b
  2907   002FF2                     
  2908                           ; BSR set to: 5
  2909                           ;C:\Program Files\Microchip\xc8\v2.40\pic\sources\c99\common\doprnt.c: 786:     return (
      +                          void) pad(fp, &dbuf[n], w);
  2910   002FF2  C534  F511         	movff	efgtoa@fp,pad@fp
  2911   002FF6  C535  F512         	movff	efgtoa@fp+1,pad@fp+1
  2912   002FFA  0E00               	movlw	low _dbuf
  2913   002FFC  2582               	addwf	efgtoa@n& (0+255),w,b
  2914   002FFE  6E13               	movwf	pad@buf^(0+1280),c
  2915   003000  0E06               	movlw	high _dbuf
  2916   003002  2183               	addwfc	(efgtoa@n+1)& (0+255),w,b
  2917   003004  6E14               	movwf	(pad@buf+1)^(0+1280),c
  2918   003006  C571  F515         	movff	efgtoa@w,pad@p
  2919   00300A  C572  F516         	movff	efgtoa@w+1,pad@p+1
  2920   00300E  EC37  F024         	call	_pad	;wreg free
  2921   003012                     i2l797:
  2922   003012  0012               	return		;funcret
  2923   003014                     __end_of_efgtoa:
  2924                           	callstack 0
  2925                           
  2926 ;; *************** function _strcpy *****************
  2927 ;; Defined at:
  2928 ;;		line 3 in file "C:\Program Files\Microchip\xc8\v2.40\pic\sources\c99\common\strcpy.c"
  2929 ;; Parameters:    Size  Location     Type
  2930 ;;  dest            2    0[COMRAM] PTR unsigned char 
  2931 ;;		 -> dbuf(80), 
  2932 ;;  src             2    2[COMRAM] PTR const unsigned char 
  2933 ;;		 -> STR_5(4), STR_2(4), 
  2934 ;; Auto vars:     Size  Location     Type
  2935 ;;  d               2    6[COMRAM] PTR unsigned char 
  2936 ;;		 -> dbuf(80), 
  2937 ;;  s               2    4[COMRAM] PTR const unsigned char 
  2938 ;;		 -> STR_5(4), STR_2(4), 
  2939 ;; Return value:  Size  Location     Type
  2940 ;;                  2    0[COMRAM] PTR unsigned char 
  2941 ;; Registers used:
  2942 ;;		wreg, fsr2l, fsr2h, status,2, status,0, tblptrl, tblptrh, tblptru
  2943 ;; Tracked objects:
  2944 ;;		On entry : 0/0
  2945 ;;		On exit  : 0/0
  2946 ;;		Unchanged: 0/0
  2947 ;; Data sizes:     COMRAM   BANK5   BANK6   BANK7   BANK8   BANK9  BANK10  BANK11  BANK12  BANK13  BANK14  BANK15  BANK1
      +6  BANK17  BANK18  BANK19  BANK20  BANK21  BANK22  BANK23  BANK24  BANK25  BANK26  BANK27  BANK28  BANK29  BANK30  BANK3
      +1  BANK32  BANK33  BANK34  BANK35  BANK36
  2948 ;;      Params:         4       0       0       0       0       0       0       0       0       0       0       0       
      +0       0       0       0       0       0       0       0       0       0       0       0       0       0       0       
      +0       0       0       0       0       0
  2949 ;;      Locals:         4       0       0       0       0       0       0       0       0       0       0       0       
      +0       0       0       0       0       0       0       0       0       0       0       0       0       0       0       
      +0       0       0       0       0       0
  2950 ;;      Temps:          0       0       0       0       0       0       0       0       0       0       0       0       
      +0       0       0       0       0       0       0       0       0       0       0       0       0       0       0       
      +0       0       0       0       0       0
  2951 ;;      Totals:         8       0       0       0       0       0       0       0       0       0       0       0       
      +0       0       0       0       0       0       0       0       0       0       0       0       0       0       0       
      +0       0       0       0       0       0
  2952 ;;Total ram usage:        8 bytes
  2953 ;; Hardware stack levels used: 1
  2954 ;; This function calls:
  2955 ;;		Nothing
  2956 ;; This function is called by:
  2957 ;;		_efgtoa
  2958 ;; This function uses a non-reentrant model
  2959 ;;
  2960                           
  2961                           	psect	text6
  2962   004A8C                     __ptext6:
  2963                           	callstack 0
  2964   004A8C                     _strcpy:
  2965                           	callstack 121
  2966   004A8C  C503  F505         	movff	strcpy@src,strcpy@s
  2967   004A90  C504  F506         	movff	strcpy@src+1,strcpy@s+1
  2968   004A94  C501  F507         	movff	strcpy@dest,strcpy@d
  2969   004A98  C502  F508         	movff	strcpy@dest+1,strcpy@d+1
  2970   004A9C                     i2l2736:
  2971   004A9C  C505  F4F6         	movff	strcpy@s,tblptrl
  2972   004AA0  C506  F4F7         	movff	strcpy@s+1,tblptrh
  2973   004AA4  4A05               	infsnz	strcpy@s^(0+1280),f,c
  2974   004AA6  2A06               	incf	(strcpy@s+1)^(0+1280),f,c
  2975   004AA8                     	if	0	;tblptru may be non-zero
  2976   004AA8                     	endif
  2977   004AA8                     	if	1	;Program memory is > 0xFFFF, there are 3 active tblptr bytes
  2978   004AA8  0E00               	movlw	low (__mediumconst shr (0+16))
  2979   004AAA  6EF8               	movwf	tblptru,c
  2980   004AAC                     	endif
  2981   004AAC  C507  F4D9         	movff	strcpy@d,fsr2l
  2982   004AB0  C508  F4DA         	movff	strcpy@d+1,fsr2h
  2983   004AB4  4A07               	infsnz	strcpy@d^(0+1280),f,c
  2984   004AB6  2A08               	incf	(strcpy@d+1)^(0+1280),f,c
  2985   004AB8  0008               	tblrd		*
  2986   004ABA  C4F5 F4DF          	movff	tablat,indf2
  2987   004ABE  50DF               	movf	indf2,w,c
  2988   004AC0  A4D8               	btfss	status,2,c
  2989   004AC2  EF65  F025         	goto	i2u282_41
  2990   004AC6  EF67  F025         	goto	i2u282_40
  2991   004ACA                     i2u282_41:
  2992   004ACA  EF4E  F025         	goto	i2l2736
  2993   004ACE                     i2u282_40:
  2994   004ACE  0012               	return		;funcret
  2995   004AD0                     __end_of_strcpy:
  2996                           	callstack 0
  2997                           
  2998 ;; *************** function _pad *****************
  2999 ;; Defined at:
  3000 ;;		line 133 in file "C:\Program Files\Microchip\xc8\v2.40\pic\sources\c99\common\doprnt.c"
  3001 ;; Parameters:    Size  Location     Type
  3002 ;;  fp              2   16[COMRAM] PTR struct _IO_FILE
  3003 ;;		 -> sprintf@f(11), 
  3004 ;;  buf             2   18[COMRAM] PTR unsigned char 
  3005 ;;		 -> dbuf(80), 
  3006 ;;  p               2   20[COMRAM] int 
  3007 ;; Auto vars:     Size  Location     Type
  3008 ;;  w               2   25[COMRAM] int 
  3009 ;;  i               2   23[COMRAM] int 
  3010 ;; Return value:  Size  Location     Type
  3011 ;;                  1    wreg      void 
  3012 ;; Registers used:
  3013 ;;		wreg, fsr1l, fsr1h, fsr2l, fsr2h, status,2, status,0, cstack
  3014 ;; Tracked objects:
  3015 ;;		On entry : 0/0
  3016 ;;		On exit  : 0/0
  3017 ;;		Unchanged: 0/0
  3018 ;; Data sizes:     COMRAM   BANK5   BANK6   BANK7   BANK8   BANK9  BANK10  BANK11  BANK12  BANK13  BANK14  BANK15  BANK1
      +6  BANK17  BANK18  BANK19  BANK20  BANK21  BANK22  BANK23  BANK24  BANK25  BANK26  BANK27  BANK28  BANK29  BANK30  BANK3
      +1  BANK32  BANK33  BANK34  BANK35  BANK36
  3019 ;;      Params:         6       0       0       0       0       0       0       0       0       0       0       0       
      +0       0       0       0       0       0       0       0       0       0       0       0       0       0       0       
      +0       0       0       0       0       0
  3020 ;;      Locals:         4       0       0       0       0       0       0       0       0       0       0       0       
      +0       0       0       0       0       0       0       0       0       0       0       0       0       0       0       
      +0       0       0       0       0       0
  3021 ;;      Temps:          1       0       0       0       0       0       0       0       0       0       0       0       
      +0       0       0       0       0       0       0       0       0       0       0       0       0       0       0       
      +0       0       0       0       0       0
  3022 ;;      Totals:        11       0       0       0       0       0       0       0       0       0       0       0       
      +0       0       0       0       0       0       0       0       0       0       0       0       0       0       0       
      +0       0       0       0       0       0
  3023 ;;Total ram usage:       11 bytes
  3024 ;; Hardware stack levels used: 1
  3025 ;; Hardware stack levels required when called: 3
  3026 ;; This function calls:
  3027 ;;		_fputc
  3028 ;;		_fputs
  3029 ;; This function is called by:
  3030 ;;		_efgtoa
  3031 ;; This function uses a non-reentrant model
  3032 ;;
  3033                           
  3034                           	psect	text7
  3035   00486E                     __ptext7:
  3036                           	callstack 0
  3037   00486E                     _pad:
  3038                           	callstack 118
  3039   00486E                     
  3040                           ;C:\Program Files\Microchip\xc8\v2.40\pic\sources\c99\common\doprnt.c: 133: static void 
      +                          pad(FILE *fp, char *buf, int p);C:\Program Files\Microchip\xc8\v2.40\pic\sources\c99\com
      +                          mon\doprnt.c: 134: {;C:\Program Files\Microchip\xc8\v2.40\pic\sources\c99\common\doprnt.
      +                          c: 135:     int i, w;;C:\Program Files\Microchip\xc8\v2.40\pic\sources\c99\common\doprnt
      +                          .c: 145:     w = (p < 0) ? 0 : p;
  3041   00486E  BE16               	btfsc	(pad@p+1)^(0+1280),7,c
  3042   004870  EF3C  F024         	goto	i2u273_41
  3043   004874  EF3E  F024         	goto	i2u273_40
  3044   004878                     i2u273_41:
  3045   004878  EF44  F024         	goto	i2l2702
  3046   00487C                     i2u273_40:
  3047   00487C  C515  F51A         	movff	pad@p,pad@w
  3048   004880  C516  F51B         	movff	pad@p+1,pad@w+1
  3049   004884  EF48  F024         	goto	i2l782
  3050   004888                     i2l2702:
  3051   004888  0E00               	movlw	0
  3052   00488A  6E1B               	movwf	(pad@w+1)^(0+1280),c
  3053   00488C  0E00               	movlw	0
  3054   00488E  6E1A               	movwf	pad@w^(0+1280),c
  3055   004890                     i2l782:
  3056                           
  3057                           ;C:\Program Files\Microchip\xc8\v2.40\pic\sources\c99\common\doprnt.c: 146:     i = 0;
  3058   004890  0E00               	movlw	0
  3059   004892  6E19               	movwf	(pad@i+1)^(0+1280),c
  3060   004894  0E00               	movlw	0
  3061   004896  6E18               	movwf	pad@i^(0+1280),c
  3062                           
  3063                           ;C:\Program Files\Microchip\xc8\v2.40\pic\sources\c99\common\doprnt.c: 147:     while (i
      +                           < w) {
  3064   004898  EF5A  F024         	goto	i2l2708
  3065   00489C                     i2l2704:
  3066                           
  3067                           ;C:\Program Files\Microchip\xc8\v2.40\pic\sources\c99\common\doprnt.c: 148:         fput
      +                          c(' ', fp);
  3068   00489C  0E00               	movlw	0
  3069   00489E  6E02               	movwf	(fputc@c+1)^(0+1280),c
  3070   0048A0  0E20               	movlw	32
  3071   0048A2  6E01               	movwf	fputc@c^(0+1280),c
  3072   0048A4  C511  F503         	movff	pad@fp,fputc@fp
  3073   0048A8  C512  F504         	movff	pad@fp+1,fputc@fp+1
  3074   0048AC  EC3E  F023         	call	_fputc	;wreg free
  3075   0048B0                     
  3076                           ;C:\Program Files\Microchip\xc8\v2.40\pic\sources\c99\common\doprnt.c: 149:         ++i;
  3077   0048B0  4A18               	infsnz	pad@i^(0+1280),f,c
  3078   0048B2  2A19               	incf	(pad@i+1)^(0+1280),f,c
  3079   0048B4                     i2l2708:
  3080                           
  3081                           ;C:\Program Files\Microchip\xc8\v2.40\pic\sources\c99\common\doprnt.c: 147:     while (i
      +                           < w) {
  3082   0048B4  501A               	movf	pad@w^(0+1280),w,c
  3083   0048B6  5C18               	subwf	pad@i^(0+1280),w,c
  3084   0048B8  5019               	movf	(pad@i+1)^(0+1280),w,c
  3085   0048BA  0A80               	xorlw	128
  3086   0048BC  6E17               	movwf	??_pad^(0+1280),c
  3087   0048BE  501B               	movf	(pad@w+1)^(0+1280),w,c
  3088   0048C0  0A80               	xorlw	128
  3089   0048C2  5817               	subwfb	??_pad^(0+1280),w,c
  3090   0048C4  A0D8               	btfss	status,0,c
  3091   0048C6  EF67  F024         	goto	i2u274_41
  3092   0048CA  EF69  F024         	goto	i2u274_40
  3093   0048CE                     i2u274_41:
  3094   0048CE  EF4E  F024         	goto	i2l2704
  3095   0048D2                     i2u274_40:
  3096   0048D2                     
  3097                           ;C:\Program Files\Microchip\xc8\v2.40\pic\sources\c99\common\doprnt.c: 156:         fput
      +                          s((const char *)buf, fp);
  3098   0048D2  C513  F50A         	movff	pad@buf,fputs@s
  3099   0048D6  C514  F50B         	movff	pad@buf+1,fputs@s+1
  3100   0048DA  C511  F50C         	movff	pad@fp,fputs@fp
  3101   0048DE  C512  F50D         	movff	pad@fp+1,fputs@fp+1
  3102   0048E2  EC68  F025         	call	_fputs	;wreg free
  3103   0048E6  0012               	return		;funcret
  3104   0048E8                     __end_of_pad:
  3105                           	callstack 0
  3106                           
  3107 ;; *************** function _fputs *****************
  3108 ;; Defined at:
  3109 ;;		line 8 in file "C:\Program Files\Microchip\xc8\v2.40\pic\sources\c99\common\nf_fputs.c"
  3110 ;; Parameters:    Size  Location     Type
  3111 ;;  s               2    9[COMRAM] PTR const unsigned char 
  3112 ;;		 -> dbuf(80), 
  3113 ;;  fp              2   11[COMRAM] PTR struct _IO_FILE
  3114 ;;		 -> sprintf@f(11), 
  3115 ;; Auto vars:     Size  Location     Type
  3116 ;;  i               2   14[COMRAM] int 
  3117 ;;  c               1   13[COMRAM] unsigned char 
  3118 ;; Return value:  Size  Location     Type
  3119 ;;                  2    9[COMRAM] int 
  3120 ;; Registers used:
  3121 ;;		wreg, fsr1l, fsr1h, fsr2l, fsr2h, status,2, status,0, cstack
  3122 ;; Tracked objects:
  3123 ;;		On entry : 0/0
  3124 ;;		On exit  : 0/0
  3125 ;;		Unchanged: 0/0
  3126 ;; Data sizes:     COMRAM   BANK5   BANK6   BANK7   BANK8   BANK9  BANK10  BANK11  BANK12  BANK13  BANK14  BANK15  BANK1
      +6  BANK17  BANK18  BANK19  BANK20  BANK21  BANK22  BANK23  BANK24  BANK25  BANK26  BANK27  BANK28  BANK29  BANK30  BANK3
      +1  BANK32  BANK33  BANK34  BANK35  BANK36
  3127 ;;      Params:         4       0       0       0       0       0       0       0       0       0       0       0       
      +0       0       0       0       0       0       0       0       0       0       0       0       0       0       0       
      +0       0       0       0       0       0
  3128 ;;      Locals:         3       0       0       0       0       0       0       0       0       0       0       0       
      +0       0       0       0       0       0       0       0       0       0       0       0       0       0       0       
      +0       0       0       0       0       0
  3129 ;;      Temps:          0       0       0       0       0       0       0       0       0       0       0       0       
      +0       0       0       0       0       0       0       0       0       0       0       0       0       0       0       
      +0       0       0       0       0       0
  3130 ;;      Totals:         7       0       0       0       0       0       0       0       0       0       0       0       
      +0       0       0       0       0       0       0       0       0       0       0       0       0       0       0       
      +0       0       0       0       0       0
  3131 ;;Total ram usage:        7 bytes
  3132 ;; Hardware stack levels used: 1
  3133 ;; Hardware stack levels required when called: 2
  3134 ;; This function calls:
  3135 ;;		_fputc
  3136 ;; This function is called by:
  3137 ;;		_pad
  3138 ;; This function uses a non-reentrant model
  3139 ;;
  3140                           
  3141                           	psect	text8
  3142   004AD0                     __ptext8:
  3143                           	callstack 0
  3144   004AD0                     _fputs:
  3145                           	callstack 118
  3146   004AD0  0E00               	movlw	0
  3147   004AD2  6E10               	movwf	(fputs@i+1)^(0+1280),c
  3148   004AD4  0E00               	movlw	0
  3149   004AD6  6E0F               	movwf	fputs@i^(0+1280),c
  3150   004AD8  EF79  F025         	goto	i2l2332
  3151   004ADC                     i2l2328:
  3152   004ADC  C50E  F501         	movff	fputs@c,fputc@c
  3153   004AE0  6A02               	clrf	(fputc@c+1)^(0+1280),c
  3154   004AE2  C50C  F503         	movff	fputs@fp,fputc@fp
  3155   004AE6  C50D  F504         	movff	fputs@fp+1,fputc@fp+1
  3156   004AEA  EC3E  F023         	call	_fputc	;wreg free
  3157   004AEE  4A0F               	infsnz	fputs@i^(0+1280),f,c
  3158   004AF0  2A10               	incf	(fputs@i+1)^(0+1280),f,c
  3159   004AF2                     i2l2332:
  3160   004AF2  500F               	movf	fputs@i^(0+1280),w,c
  3161   004AF4  240A               	addwf	fputs@s^(0+1280),w,c
  3162   004AF6  6ED9               	movwf	fsr2l,c
  3163   004AF8  5010               	movf	(fputs@i+1)^(0+1280),w,c
  3164   004AFA  200B               	addwfc	(fputs@s+1)^(0+1280),w,c
  3165   004AFC  6EDA               	movwf	fsr2h,c
  3166   004AFE  50DF               	movf	indf2,w,c
  3167   004B00  6E0E               	movwf	fputs@c^(0+1280),c
  3168   004B02  500E               	movf	fputs@c^(0+1280),w,c
  3169   004B04  A4D8               	btfss	status,2,c
  3170   004B06  EF87  F025         	goto	i2u214_41
  3171   004B0A  EF89  F025         	goto	i2u214_40
  3172   004B0E                     i2u214_41:
  3173   004B0E  EF6E  F025         	goto	i2l2328
  3174   004B12                     i2u214_40:
  3175   004B12  0012               	return		;funcret
  3176   004B14                     __end_of_fputs:
  3177                           	callstack 0
  3178                           
  3179 ;; *************** function _fputc *****************
  3180 ;; Defined at:
  3181 ;;		line 8 in file "C:\Program Files\Microchip\xc8\v2.40\pic\sources\c99\common\nf_fputc.c"
  3182 ;; Parameters:    Size  Location     Type
  3183 ;;  c               2    0[COMRAM] int 
  3184 ;;  fp              2    2[COMRAM] PTR struct _IO_FILE
  3185 ;;		 -> sprintf@f(11), 
  3186 ;; Auto vars:     Size  Location     Type
  3187 ;;		None
  3188 ;; Return value:  Size  Location     Type
  3189 ;;                  2    0[COMRAM] int 
  3190 ;; Registers used:
  3191 ;;		wreg, fsr1l, fsr1h, fsr2l, fsr2h, status,2, status,0, cstack
  3192 ;; Tracked objects:
  3193 ;;		On entry : 0/0
  3194 ;;		On exit  : 0/0
  3195 ;;		Unchanged: 0/0
  3196 ;; Data sizes:     COMRAM   BANK5   BANK6   BANK7   BANK8   BANK9  BANK10  BANK11  BANK12  BANK13  BANK14  BANK15  BANK1
      +6  BANK17  BANK18  BANK19  BANK20  BANK21  BANK22  BANK23  BANK24  BANK25  BANK26  BANK27  BANK28  BANK29  BANK30  BANK3
      +1  BANK32  BANK33  BANK34  BANK35  BANK36
  3197 ;;      Params:         4       0       0       0       0       0       0       0       0       0       0       0       
      +0       0       0       0       0       0       0       0       0       0       0       0       0       0       0       
      +0       0       0       0       0       0
  3198 ;;      Locals:         0       0       0       0       0       0       0       0       0       0       0       0       
      +0       0       0       0       0       0       0       0       0       0       0       0       0       0       0       
      +0       0       0       0       0       0
  3199 ;;      Temps:          5       0       0       0       0       0       0       0       0       0       0       0       
      +0       0       0       0       0       0       0       0       0       0       0       0       0       0       0       
      +0       0       0       0       0       0
  3200 ;;      Totals:         9       0       0       0       0       0       0       0       0       0       0       0       
      +0       0       0       0       0       0       0       0       0       0       0       0       0       0       0       
      +0       0       0       0       0       0
  3201 ;;Total ram usage:        9 bytes
  3202 ;; Hardware stack levels used: 1
  3203 ;; Hardware stack levels required when called: 1
  3204 ;; This function calls:
  3205 ;;		_putch
  3206 ;; This function is called by:
  3207 ;;		_pad
  3208 ;;		_vfpfcnvrt
  3209 ;;		_fputs
  3210 ;; This function uses a non-reentrant model
  3211 ;;
  3212                           
  3213                           	psect	text9
  3214   00467C                     __ptext9:
  3215                           	callstack 0
  3216   00467C                     _fputc:
  3217                           	callstack 121
  3218   00467C  5003               	movf	fputc@fp^(0+1280),w,c
  3219   00467E  1004               	iorwf	(fputc@fp+1)^(0+1280),w,c
  3220   004680  B4D8               	btfsc	status,2,c
  3221   004682  EF45  F023         	goto	i2u171_41
  3222   004686  EF47  F023         	goto	i2u171_40
  3223   00468A                     i2u171_41:
  3224   00468A  EF50  F023         	goto	i2l2114
  3225   00468E                     i2u171_40:
  3226   00468E  5003               	movf	fputc@fp^(0+1280),w,c
  3227   004690  1004               	iorwf	(fputc@fp+1)^(0+1280),w,c
  3228   004692  A4D8               	btfss	status,2,c
  3229   004694  EF4E  F023         	goto	i2u172_41
  3230   004698  EF50  F023         	goto	i2u172_40
  3231   00469C                     i2u172_41:
  3232   00469C  EF55  F023         	goto	i2l2116
  3233   0046A0                     i2u172_40:
  3234   0046A0                     i2l2114:
  3235   0046A0  5001               	movf	fputc@c^(0+1280),w,c
  3236   0046A2  ECBE  F025         	call	_putch
  3237   0046A6  EFA2  F023         	goto	i2l913
  3238   0046AA                     i2l2116:
  3239   0046AA  EE20 F009          	lfsr	2,9
  3240   0046AE  5003               	movf	fputc@fp^(0+1280),w,c
  3241   0046B0  26D9               	addwf	fsr2l,f,c
  3242   0046B2  5004               	movf	(fputc@fp+1)^(0+1280),w,c
  3243   0046B4  22DA               	addwfc	fsr2h,f,c
  3244   0046B6  50DE               	movf	postinc2,w,c
  3245   0046B8  10DE               	iorwf	postinc2,w,c
  3246   0046BA  B4D8               	btfsc	status,2,c
  3247   0046BC  EF62  F023         	goto	i2u173_41
  3248   0046C0  EF64  F023         	goto	i2u173_40
  3249   0046C4                     i2u173_41:
  3250   0046C4  EF7F  F023         	goto	i2l2120
  3251   0046C8                     i2u173_40:
  3252   0046C8  EE20 F009          	lfsr	2,9
  3253   0046CC  5003               	movf	fputc@fp^(0+1280),w,c
  3254   0046CE  26D9               	addwf	fsr2l,f,c
  3255   0046D0  5004               	movf	(fputc@fp+1)^(0+1280),w,c
  3256   0046D2  22DA               	addwfc	fsr2h,f,c
  3257   0046D4  EE10 F003          	lfsr	1,3
  3258   0046D8  5003               	movf	fputc@fp^(0+1280),w,c
  3259   0046DA  26E1               	addwf	fsr1l,f,c
  3260   0046DC  5004               	movf	(fputc@fp+1)^(0+1280),w,c
  3261   0046DE  22E2               	addwfc	fsr1h,f,c
  3262   0046E0  50DE               	movf	postinc2,w,c
  3263   0046E2  5CE6               	subwf	postinc1,w,c
  3264   0046E4  50E6               	movf	postinc1,w,c
  3265   0046E6  0A80               	xorlw	128
  3266   0046E8  6E09               	movwf	(??_fputc+4)^(0+1280),c
  3267   0046EA  50DE               	movf	postinc2,w,c
  3268   0046EC  0A80               	xorlw	128
  3269   0046EE  5809               	subwfb	(??_fputc+4)^(0+1280),w,c
  3270   0046F0  B0D8               	btfsc	status,0,c
  3271   0046F2  EF7D  F023         	goto	i2u174_41
  3272   0046F6  EF7F  F023         	goto	i2u174_40
  3273   0046FA                     i2u174_41:
  3274   0046FA  EFA2  F023         	goto	i2l913
  3275   0046FE                     i2u174_40:
  3276   0046FE                     i2l2120:
  3277   0046FE  EE20 F003          	lfsr	2,3
  3278   004702  5003               	movf	fputc@fp^(0+1280),w,c
  3279   004704  26D9               	addwf	fsr2l,f,c
  3280   004706  5004               	movf	(fputc@fp+1)^(0+1280),w,c
  3281   004708  22DA               	addwfc	fsr2h,f,c
  3282   00470A  C4DE F505          	movff	postinc2,??_fputc
  3283   00470E  C4DD F506          	movff	postdec2,??_fputc+1
  3284   004712  C503  F4D9         	movff	fputc@fp,fsr2l
  3285   004716  C504  F4DA         	movff	fputc@fp+1,fsr2h
  3286   00471A  C4DE F507          	movff	postinc2,??_fputc+2
  3287   00471E  C4DD F508          	movff	postdec2,??_fputc+3
  3288   004722  5005               	movf	??_fputc^(0+1280),w,c
  3289   004724  2407               	addwf	(??_fputc+2)^(0+1280),w,c
  3290   004726  6ED9               	movwf	fsr2l,c
  3291   004728  5006               	movf	(??_fputc+1)^(0+1280),w,c
  3292   00472A  2008               	addwfc	(??_fputc+3)^(0+1280),w,c
  3293   00472C  6EDA               	movwf	fsr2h,c
  3294   00472E  C501  F4DF         	movff	fputc@c,indf2
  3295   004732  EE20 F003          	lfsr	2,3
  3296   004736  5003               	movf	fputc@fp^(0+1280),w,c
  3297   004738  26D9               	addwf	fsr2l,f,c
  3298   00473A  5004               	movf	(fputc@fp+1)^(0+1280),w,c
  3299   00473C  22DA               	addwfc	fsr2h,f,c
  3300   00473E  2ADE               	incf	postinc2,f,c
  3301   004740  0E00               	movlw	0
  3302   004742  22DD               	addwfc	postdec2,f,c
  3303   004744                     i2l913:
  3304   004744  0012               	return		;funcret
  3305   004746                     __end_of_fputc:
  3306                           	callstack 0
  3307                           
  3308 ;; *************** function _putch *****************
  3309 ;; Defined at:
  3310 ;;		line 7 in file "C:\Program Files\Microchip\xc8\v2.40\pic\sources\c99\common\putch.c"
  3311 ;; Parameters:    Size  Location     Type
  3312 ;;  c               1    wreg     unsigned char 
  3313 ;; Auto vars:     Size  Location     Type
  3314 ;;  c               1    0[COMRAM] unsigned char 
  3315 ;; Return value:  Size  Location     Type
  3316 ;;                  1    wreg      void 
  3317 ;; Registers used:
  3318 ;;		wreg
  3319 ;; Tracked objects:
  3320 ;;		On entry : 0/0
  3321 ;;		On exit  : 0/0
  3322 ;;		Unchanged: 0/0
  3323 ;; Data sizes:     COMRAM   BANK5   BANK6   BANK7   BANK8   BANK9  BANK10  BANK11  BANK12  BANK13  BANK14  BANK15  BANK1
      +6  BANK17  BANK18  BANK19  BANK20  BANK21  BANK22  BANK23  BANK24  BANK25  BANK26  BANK27  BANK28  BANK29  BANK30  BANK3
      +1  BANK32  BANK33  BANK34  BANK35  BANK36
  3324 ;;      Params:         0       0       0       0       0       0       0       0       0       0       0       0       
      +0       0       0       0       0       0       0       0       0       0       0       0       0       0       0       
      +0       0       0       0       0       0
  3325 ;;      Locals:         0       0       0       0       0       0       0       0       0       0       0       0       
      +0       0       0       0       0       0       0       0       0       0       0       0       0       0       0       
      +0       0       0       0       0       0
  3326 ;;      Temps:          0       0       0       0       0       0       0       0       0       0       0       0       
      +0       0       0       0       0       0       0       0       0       0       0       0       0       0       0       
      +0       0       0       0       0       0
  3327 ;;      Totals:         0       0       0       0       0       0       0       0       0       0       0       0       
      +0       0       0       0       0       0       0       0       0       0       0       0       0       0       0       
      +0       0       0       0       0       0
  3328 ;;Total ram usage:        0 bytes
  3329 ;; Hardware stack levels used: 1
  3330 ;; This function calls:
  3331 ;;		Nothing
  3332 ;; This function is called by:
  3333 ;;		_fputc
  3334 ;; This function uses a non-reentrant model
  3335 ;;
  3336                           
  3337                           	psect	text10
  3338   004B7C                     __ptext10:
  3339                           	callstack 0
  3340   004B7C                     _putch:
  3341                           	callstack 121
  3342   004B7C  0012               	return		;funcret
  3343   004B7E                     __end_of_putch:
  3344                           	callstack 0
  3345                           
  3346 ;; *************** function _memcpy *****************
  3347 ;; Defined at:
  3348 ;;		line 4 in file "C:\Program Files\Microchip\xc8\v2.40\pic\sources\c99\common\memcpy.c"
  3349 ;; Parameters:    Size  Location     Type
  3350 ;;  d1              2    0[COMRAM] PTR void 
  3351 ;;		 -> dbuf(80), 
  3352 ;;  s1              2    2[COMRAM] PTR const void 
  3353 ;;		 -> dbuf(80), 
  3354 ;;  n               2    4[COMRAM] unsigned int 
  3355 ;; Auto vars:     Size  Location     Type
  3356 ;;  s               2    8[COMRAM] PTR const unsigned char 
  3357 ;;		 -> dbuf(80), 
  3358 ;;  d               2    6[COMRAM] PTR unsigned char 
  3359 ;;		 -> dbuf(80), 
  3360 ;;  tmp             1   10[COMRAM] unsigned char 
  3361 ;; Return value:  Size  Location     Type
  3362 ;;                  2    0[COMRAM] PTR void 
  3363 ;; Registers used:
  3364 ;;		wreg, fsr2l, fsr2h, status,2, status,0
  3365 ;; Tracked objects:
  3366 ;;		On entry : 0/0
  3367 ;;		On exit  : 0/0
  3368 ;;		Unchanged: 0/0
  3369 ;; Data sizes:     COMRAM   BANK5   BANK6   BANK7   BANK8   BANK9  BANK10  BANK11  BANK12  BANK13  BANK14  BANK15  BANK1
      +6  BANK17  BANK18  BANK19  BANK20  BANK21  BANK22  BANK23  BANK24  BANK25  BANK26  BANK27  BANK28  BANK29  BANK30  BANK3
      +1  BANK32  BANK33  BANK34  BANK35  BANK36
  3370 ;;      Params:         6       0       0       0       0       0       0       0       0       0       0       0       
      +0       0       0       0       0       0       0       0       0       0       0       0       0       0       0       
      +0       0       0       0       0       0
  3371 ;;      Locals:         5       0       0       0       0       0       0       0       0       0       0       0       
      +0       0       0       0       0       0       0       0       0       0       0       0       0       0       0       
      +0       0       0       0       0       0
  3372 ;;      Temps:          0       0       0       0       0       0       0       0       0       0       0       0       
      +0       0       0       0       0       0       0       0       0       0       0       0       0       0       0       
      +0       0       0       0       0       0
  3373 ;;      Totals:        11       0       0       0       0       0       0       0       0       0       0       0       
      +0       0       0       0       0       0       0       0       0       0       0       0       0       0       0       
      +0       0       0       0       0       0
  3374 ;;Total ram usage:       11 bytes
  3375 ;; Hardware stack levels used: 1
  3376 ;; This function calls:
  3377 ;;		Nothing
  3378 ;; This function is called by:
  3379 ;;		_efgtoa
  3380 ;; This function uses a non-reentrant model
  3381 ;;
  3382                           
  3383                           	psect	text11
  3384   0049F6                     __ptext11:
  3385                           	callstack 0
  3386   0049F6                     _memcpy:
  3387                           	callstack 121
  3388   0049F6  C503  F509         	movff	memcpy@s1,memcpy@s
  3389   0049FA  C504  F50A         	movff	memcpy@s1+1,memcpy@s+1
  3390   0049FE  C501  F507         	movff	memcpy@d1,memcpy@d
  3391   004A02  C502  F508         	movff	memcpy@d1+1,memcpy@d+1
  3392   004A06  EF15  F025         	goto	i2l2780
  3393   004A0A                     i2l2772:
  3394   004A0A  C509  F4D9         	movff	memcpy@s,fsr2l
  3395   004A0E  C50A  F4DA         	movff	memcpy@s+1,fsr2h
  3396   004A12  50DF               	movf	indf2,w,c
  3397   004A14  6E0B               	movwf	memcpy@tmp^(0+1280),c
  3398   004A16  4A09               	infsnz	memcpy@s^(0+1280),f,c
  3399   004A18  2A0A               	incf	(memcpy@s+1)^(0+1280),f,c
  3400   004A1A  C507  F4D9         	movff	memcpy@d,fsr2l
  3401   004A1E  C508  F4DA         	movff	memcpy@d+1,fsr2h
  3402   004A22  C50B  F4DF         	movff	memcpy@tmp,indf2
  3403   004A26  4A07               	infsnz	memcpy@d^(0+1280),f,c
  3404   004A28  2A08               	incf	(memcpy@d+1)^(0+1280),f,c
  3405   004A2A                     i2l2780:
  3406   004A2A  0605               	decf	memcpy@n^(0+1280),f,c
  3407   004A2C  A0D8               	btfss	status,0,c
  3408   004A2E  0606               	decf	(memcpy@n+1)^(0+1280),f,c
  3409   004A30  2805               	incf	memcpy@n^(0+1280),w,c
  3410   004A32  E106               	bnz	i2u294_41
  3411   004A34  2806               	incf	(memcpy@n+1)^(0+1280),w,c
  3412   004A36  A4D8               	btfss	status,2,c
  3413   004A38  EF20  F025         	goto	i2u294_41
  3414   004A3C  EF22  F025         	goto	i2u294_40
  3415   004A40                     i2u294_41:
  3416   004A40  EF05  F025         	goto	i2l2772
  3417   004A44                     i2u294_40:
  3418   004A44  0012               	return		;funcret
  3419   004A46                     __end_of_memcpy:
  3420                           	callstack 0
  3421                           
  3422 ;; *************** function _labs *****************
  3423 ;; Defined at:
  3424 ;;		line 1 in file "C:\Program Files\Microchip\xc8\v2.40\pic\sources\c99\common\labs.c"
  3425 ;; Parameters:    Size  Location     Type
  3426 ;;  a               4    0[COMRAM] long 
  3427 ;; Auto vars:     Size  Location     Type
  3428 ;;		None
  3429 ;; Return value:  Size  Location     Type
  3430 ;;                  4    0[COMRAM] long 
  3431 ;; Registers used:
  3432 ;;		wreg, status,2, status,0
  3433 ;; Tracked objects:
  3434 ;;		On entry : 0/0
  3435 ;;		On exit  : 0/0
  3436 ;;		Unchanged: 0/0
  3437 ;; Data sizes:     COMRAM   BANK5   BANK6   BANK7   BANK8   BANK9  BANK10  BANK11  BANK12  BANK13  BANK14  BANK15  BANK1
      +6  BANK17  BANK18  BANK19  BANK20  BANK21  BANK22  BANK23  BANK24  BANK25  BANK26  BANK27  BANK28  BANK29  BANK30  BANK3
      +1  BANK32  BANK33  BANK34  BANK35  BANK36
  3438 ;;      Params:         4       0       0       0       0       0       0       0       0       0       0       0       
      +0       0       0       0       0       0       0       0       0       0       0       0       0       0       0       
      +0       0       0       0       0       0
  3439 ;;      Locals:         0       0       0       0       0       0       0       0       0       0       0       0       
      +0       0       0       0       0       0       0       0       0       0       0       0       0       0       0       
      +0       0       0       0       0       0
  3440 ;;      Temps:          4       0       0       0       0       0       0       0       0       0       0       0       
      +0       0       0       0       0       0       0       0       0       0       0       0       0       0       0       
      +0       0       0       0       0       0
  3441 ;;      Totals:         8       0       0       0       0       0       0       0       0       0       0       0       
      +0       0       0       0       0       0       0       0       0       0       0       0       0       0       0       
      +0       0       0       0       0       0
  3442 ;;Total ram usage:        8 bytes
  3443 ;; Hardware stack levels used: 1
  3444 ;; This function calls:
  3445 ;;		Nothing
  3446 ;; This function is called by:
  3447 ;;		_efgtoa
  3448 ;; This function uses a non-reentrant model
  3449 ;;
  3450                           
  3451                           	psect	text12
  3452   0048E8                     __ptext12:
  3453                           	callstack 0
  3454   0048E8                     _labs:
  3455                           	callstack 121
  3456   0048E8  BE04               	btfsc	(labs@a+3)^(0+1280),7,c
  3457   0048EA  EF83  F024         	goto	i2u283_40
  3458   0048EE  5004               	movf	(labs@a+3)^(0+1280),w,c
  3459   0048F0  1003               	iorwf	(labs@a+2)^(0+1280),w,c
  3460   0048F2  1002               	iorwf	(labs@a+1)^(0+1280),w,c
  3461   0048F4  E106               	bnz	i2u283_41
  3462   0048F6  0401               	decf	labs@a^(0+1280),w,c
  3463   0048F8  B0D8               	btfsc	status,0,c
  3464   0048FA  EF81  F024         	goto	i2u283_41
  3465   0048FE  EF83  F024         	goto	i2u283_40
  3466   004902                     i2u283_41:
  3467   004902  EF9E  F024         	goto	i2l892
  3468   004906                     i2u283_40:
  3469   004906  C501  F505         	movff	labs@a,??_labs
  3470   00490A  C502  F506         	movff	labs@a+1,??_labs+1
  3471   00490E  C503  F507         	movff	labs@a+2,??_labs+2
  3472   004912  C504  F508         	movff	labs@a+3,??_labs+3
  3473   004916  1E05               	comf	??_labs^(0+1280),f,c
  3474   004918  1E06               	comf	(??_labs+1)^(0+1280),f,c
  3475   00491A  1E07               	comf	(??_labs+2)^(0+1280),f,c
  3476   00491C  1E08               	comf	(??_labs+3)^(0+1280),f,c
  3477   00491E  2A05               	incf	??_labs^(0+1280),f,c
  3478   004920  0E00               	movlw	0
  3479   004922  2206               	addwfc	(??_labs+1)^(0+1280),f,c
  3480   004924  2207               	addwfc	(??_labs+2)^(0+1280),f,c
  3481   004926  2208               	addwfc	(??_labs+3)^(0+1280),f,c
  3482   004928  C505  F501         	movff	??_labs,?_labs
  3483   00492C  C506  F502         	movff	??_labs+1,?_labs+1
  3484   004930  C507  F503         	movff	??_labs+2,?_labs+2
  3485   004934  C508  F504         	movff	??_labs+3,?_labs+3
  3486   004938  EFA6  F024         	goto	i2l895
  3487   00493C                     i2l892:
  3488   00493C  C501  F501         	movff	labs@a,?_labs
  3489   004940  C502  F502         	movff	labs@a+1,?_labs+1
  3490   004944  C503  F503         	movff	labs@a+2,?_labs+2
  3491   004948  C504  F504         	movff	labs@a+3,?_labs+3
  3492   00494C                     i2l895:
  3493   00494C  0012               	return		;funcret
  3494   00494E                     __end_of_labs:
  3495                           	callstack 0
  3496                           
  3497 ;; *************** function _floorf *****************
  3498 ;; Defined at:
  3499 ;;		line 3 in file "C:\Program Files\Microchip\xc8\v2.40\pic\sources\c99\common\floorf.c"
  3500 ;; Parameters:    Size  Location     Type
  3501 ;;  x               4   25[COMRAM] float 
  3502 ;; Auto vars:     Size  Location     Type
  3503 ;;  u               4   41[COMRAM] struct .
  3504 ;;  m               4   35[COMRAM] unsigned long 
  3505 ;;  e               2   39[COMRAM] int 
  3506 ;; Return value:  Size  Location     Type
  3507 ;;                  4   25[COMRAM] float 
  3508 ;; Registers used:
  3509 ;;		wreg, status,2, status,0
  3510 ;; Tracked objects:
  3511 ;;		On entry : 0/0
  3512 ;;		On exit  : 0/0
  3513 ;;		Unchanged: 0/0
  3514 ;; Data sizes:     COMRAM   BANK5   BANK6   BANK7   BANK8   BANK9  BANK10  BANK11  BANK12  BANK13  BANK14  BANK15  BANK1
      +6  BANK17  BANK18  BANK19  BANK20  BANK21  BANK22  BANK23  BANK24  BANK25  BANK26  BANK27  BANK28  BANK29  BANK30  BANK3
      +1  BANK32  BANK33  BANK34  BANK35  BANK36
  3515 ;;      Params:         4       0       0       0       0       0       0       0       0       0       0       0       
      +0       0       0       0       0       0       0       0       0       0       0       0       0       0       0       
      +0       0       0       0       0       0
  3516 ;;      Locals:        10       0       0       0       0       0       0       0       0       0       0       0       
      +0       0       0       0       0       0       0       0       0       0       0       0       0       0       0       
      +0       0       0       0       0       0
  3517 ;;      Temps:          6       0       0       0       0       0       0       0       0       0       0       0       
      +0       0       0       0       0       0       0       0       0       0       0       0       0       0       0       
      +0       0       0       0       0       0
  3518 ;;      Totals:        20       0       0       0       0       0       0       0       0       0       0       0       
      +0       0       0       0       0       0       0       0       0       0       0       0       0       0       0       
      +0       0       0       0       0       0
  3519 ;;Total ram usage:       20 bytes
  3520 ;; Hardware stack levels used: 1
  3521 ;; This function calls:
  3522 ;;		Nothing
  3523 ;; This function is called by:
  3524 ;;		_efgtoa
  3525 ;; This function uses a non-reentrant model
  3526 ;;
  3527                           
  3528                           	psect	text13
  3529   003EC8                     __ptext13:
  3530                           	callstack 0
  3531   003EC8                     _floorf:
  3532                           	callstack 121
  3533   003EC8  C5B8  F52A         	movff	floorf@F526,floorf@u
  3534   003ECC  C5B9  F52B         	movff	floorf@F526+1,floorf@u+1
  3535   003ED0  C5BA  F52C         	movff	floorf@F526+2,floorf@u+2
  3536   003ED4  C5BB  F52D         	movff	floorf@F526+3,floorf@u+3
  3537   003ED8  C51A  F52A         	movff	floorf@x,floorf@u
  3538   003EDC  C51B  F52B         	movff	floorf@x+1,floorf@u+1
  3539   003EE0  C51C  F52C         	movff	floorf@x+2,floorf@u+2
  3540   003EE4  C51D  F52D         	movff	floorf@x+3,floorf@u+3
  3541   003EE8  0E81               	movlw	129
  3542   003EEA  6E1E               	movwf	??_floorf^(0+1280),c
  3543   003EEC  0EFF               	movlw	255
  3544   003EEE  6E1F               	movwf	(??_floorf+1)^(0+1280),c
  3545   003EF0  C52A  F520         	movff	floorf@u,??_floorf+2
  3546   003EF4  C52B  F521         	movff	floorf@u+1,??_floorf+3
  3547   003EF8  C52C  F522         	movff	floorf@u+2,??_floorf+4
  3548   003EFC  C52D  F523         	movff	floorf@u+3,??_floorf+5
  3549   003F00  0E18               	movlw	24
  3550   003F02  EF88  F01F         	goto	i2u284_40
  3551   003F06                     i2u284_45:
  3552   003F06  90D8               	bcf	status,0,c
  3553   003F08  3223               	rrcf	(??_floorf+5)^(0+1280),f,c
  3554   003F0A  3222               	rrcf	(??_floorf+4)^(0+1280),f,c
  3555   003F0C  3221               	rrcf	(??_floorf+3)^(0+1280),f,c
  3556   003F0E  3220               	rrcf	(??_floorf+2)^(0+1280),f,c
  3557   003F10                     i2u284_40:
  3558   003F10  2EE8               	decfsz	wreg,f,c
  3559   003F12  EF83  F01F         	goto	i2u284_45
  3560   003F16  5020               	movf	(??_floorf+2)^(0+1280),w,c
  3561   003F18  241E               	addwf	??_floorf^(0+1280),w,c
  3562   003F1A  6E28               	movwf	floorf@e^(0+1280),c
  3563   003F1C  0E00               	movlw	0
  3564   003F1E  201F               	addwfc	(??_floorf+1)^(0+1280),w,c
  3565   003F20  6E29               	movwf	(floorf@e+1)^(0+1280),c
  3566   003F22  BE29               	btfsc	(floorf@e+1)^(0+1280),7,c
  3567   003F24  EF9D  F01F         	goto	i2u285_41
  3568   003F28  5029               	movf	(floorf@e+1)^(0+1280),w,c
  3569   003F2A  E109               	bnz	i2u285_40
  3570   003F2C  0E17               	movlw	23
  3571   003F2E  5C28               	subwf	floorf@e^(0+1280),w,c
  3572   003F30  A0D8               	btfss	status,0,c
  3573   003F32  EF9D  F01F         	goto	i2u285_41
  3574   003F36  EF9F  F01F         	goto	i2u285_40
  3575   003F3A                     i2u285_41:
  3576   003F3A  EFA9  F01F         	goto	i2l2748
  3577   003F3E                     i2u285_40:
  3578   003F3E                     i2l2746:
  3579   003F3E  C51A  F51A         	movff	floorf@x,?_floorf
  3580   003F42  C51B  F51B         	movff	floorf@x+1,?_floorf+1
  3581   003F46  C51C  F51C         	movff	floorf@x+2,?_floorf+2
  3582   003F4A  C51D  F51D         	movff	floorf@x+3,?_floorf+3
  3583   003F4E  EF6C  F020         	goto	i2l881
  3584   003F52                     i2l2748:
  3585   003F52  BE29               	btfsc	(floorf@e+1)^(0+1280),7,c
  3586   003F54  EFAE  F01F         	goto	i2u286_41
  3587   003F58  EFB0  F01F         	goto	i2u286_40
  3588   003F5C                     i2u286_41:
  3589   003F5C  EF20  F020         	goto	i2l2758
  3590   003F60                     i2u286_40:
  3591   003F60  C528  F51E         	movff	floorf@e,??_floorf
  3592   003F64  0EFF               	movlw	255
  3593   003F66  6E1F               	movwf	(??_floorf+1)^(0+1280),c
  3594   003F68  0EFF               	movlw	255
  3595   003F6A  6E20               	movwf	(??_floorf+2)^(0+1280),c
  3596   003F6C  0E7F               	movlw	127
  3597   003F6E  6E21               	movwf	(??_floorf+3)^(0+1280),c
  3598   003F70  0E00               	movlw	0
  3599   003F72  6E22               	movwf	(??_floorf+4)^(0+1280),c
  3600   003F74                     i2u287_45:
  3601   003F74  661E               	tstfsz	??_floorf^(0+1280),c
  3602   003F76  EFBF  F01F         	goto	i2u287_46
  3603   003F7A  EFC7  F01F         	goto	i2u287_47
  3604   003F7E                     i2u287_46:
  3605   003F7E  3422               	rlcf	(??_floorf+4)^(0+1280),w,c
  3606   003F80  3222               	rrcf	(??_floorf+4)^(0+1280),f,c
  3607   003F82  3221               	rrcf	(??_floorf+3)^(0+1280),f,c
  3608   003F84  3220               	rrcf	(??_floorf+2)^(0+1280),f,c
  3609   003F86  321F               	rrcf	(??_floorf+1)^(0+1280),f,c
  3610   003F88  2E1E               	decfsz	??_floorf^(0+1280),f,c
  3611   003F8A  EFBA  F01F         	goto	i2u287_45
  3612   003F8E                     i2u287_47:
  3613   003F8E  C51F  F524         	movff	??_floorf+1,floorf@m
  3614   003F92  C520  F525         	movff	??_floorf+2,floorf@m+1
  3615   003F96  C521  F526         	movff	??_floorf+3,floorf@m+2
  3616   003F9A  C522  F527         	movff	??_floorf+4,floorf@m+3
  3617   003F9E  5024               	movf	floorf@m^(0+1280),w,c
  3618   003FA0  142A               	andwf	floorf@u^(0+1280),w,c
  3619   003FA2  6E1E               	movwf	??_floorf^(0+1280),c
  3620   003FA4  5025               	movf	(floorf@m+1)^(0+1280),w,c
  3621   003FA6  142B               	andwf	(floorf@u+1)^(0+1280),w,c
  3622   003FA8  6E1F               	movwf	(??_floorf+1)^(0+1280),c
  3623   003FAA  5026               	movf	(floorf@m+2)^(0+1280),w,c
  3624   003FAC  142C               	andwf	(floorf@u+2)^(0+1280),w,c
  3625   003FAE  6E20               	movwf	(??_floorf+2)^(0+1280),c
  3626   003FB0  5027               	movf	(floorf@m+3)^(0+1280),w,c
  3627   003FB2  142D               	andwf	(floorf@u+3)^(0+1280),w,c
  3628   003FB4  6E21               	movwf	(??_floorf+3)^(0+1280),c
  3629   003FB6  501E               	movf	??_floorf^(0+1280),w,c
  3630   003FB8  101F               	iorwf	(??_floorf+1)^(0+1280),w,c
  3631   003FBA  1020               	iorwf	(??_floorf+2)^(0+1280),w,c
  3632   003FBC  1021               	iorwf	(??_floorf+3)^(0+1280),w,c
  3633   003FBE  A4D8               	btfss	status,2,c
  3634   003FC0  EFE4  F01F         	goto	i2u288_41
  3635   003FC4  EFE6  F01F         	goto	i2u288_40
  3636   003FC8                     i2u288_41:
  3637   003FC8  EFE8  F01F         	goto	i2l2754
  3638   003FCC                     i2u288_40:
  3639   003FCC  EF9F  F01F         	goto	i2l2746
  3640   003FD0                     i2l2754:
  3641   003FD0  C52A  F51E         	movff	floorf@u,??_floorf
  3642   003FD4  C52B  F51F         	movff	floorf@u+1,??_floorf+1
  3643   003FD8  C52C  F520         	movff	floorf@u+2,??_floorf+2
  3644   003FDC  C52D  F521         	movff	floorf@u+3,??_floorf+3
  3645   003FE0  0E20               	movlw	32
  3646   003FE2  EFF8  F01F         	goto	i2u289_40
  3647   003FE6                     i2u289_45:
  3648   003FE6  90D8               	bcf	status,0,c
  3649   003FE8  3221               	rrcf	(??_floorf+3)^(0+1280),f,c
  3650   003FEA  3220               	rrcf	(??_floorf+2)^(0+1280),f,c
  3651   003FEC  321F               	rrcf	(??_floorf+1)^(0+1280),f,c
  3652   003FEE  321E               	rrcf	??_floorf^(0+1280),f,c
  3653   003FF0                     i2u289_40:
  3654   003FF0  2EE8               	decfsz	wreg,f,c
  3655   003FF2  EFF3  F01F         	goto	i2u289_45
  3656   003FF6  501E               	movf	??_floorf^(0+1280),w,c
  3657   003FF8  101F               	iorwf	(??_floorf+1)^(0+1280),w,c
  3658   003FFA  1020               	iorwf	(??_floorf+2)^(0+1280),w,c
  3659   003FFC  1021               	iorwf	(??_floorf+3)^(0+1280),w,c
  3660   003FFE  B4D8               	btfsc	status,2,c
  3661   004000  EF04  F020         	goto	i2u290_41
  3662   004004  EF06  F020         	goto	i2u290_40
  3663   004008                     i2u290_41:
  3664   004008  EF0E  F020         	goto	i2l884
  3665   00400C                     i2u290_40:
  3666   00400C  5024               	movf	floorf@m^(0+1280),w,c
  3667   00400E  262A               	addwf	floorf@u^(0+1280),f,c
  3668   004010  5025               	movf	(floorf@m+1)^(0+1280),w,c
  3669   004012  222B               	addwfc	(floorf@u+1)^(0+1280),f,c
  3670   004014  5026               	movf	(floorf@m+2)^(0+1280),w,c
  3671   004016  222C               	addwfc	(floorf@u+2)^(0+1280),f,c
  3672   004018  5027               	movf	(floorf@m+3)^(0+1280),w,c
  3673   00401A  222D               	addwfc	(floorf@u+3)^(0+1280),f,c
  3674   00401C                     i2l884:
  3675   00401C  1C24               	comf	floorf@m^(0+1280),w,c
  3676   00401E  6E1E               	movwf	??_floorf^(0+1280),c
  3677   004020  1C25               	comf	(floorf@m+1)^(0+1280),w,c
  3678   004022  6E1F               	movwf	(??_floorf+1)^(0+1280),c
  3679   004024  1C26               	comf	(floorf@m+2)^(0+1280),w,c
  3680   004026  6E20               	movwf	(??_floorf+2)^(0+1280),c
  3681   004028  1C27               	comf	(floorf@m+3)^(0+1280),w,c
  3682   00402A  6E21               	movwf	(??_floorf+3)^(0+1280),c
  3683   00402C  501E               	movf	??_floorf^(0+1280),w,c
  3684   00402E  162A               	andwf	floorf@u^(0+1280),f,c
  3685   004030  501F               	movf	(??_floorf+1)^(0+1280),w,c
  3686   004032  162B               	andwf	(floorf@u+1)^(0+1280),f,c
  3687   004034  5020               	movf	(??_floorf+2)^(0+1280),w,c
  3688   004036  162C               	andwf	(floorf@u+2)^(0+1280),f,c
  3689   004038  5021               	movf	(??_floorf+3)^(0+1280),w,c
  3690   00403A  162D               	andwf	(floorf@u+3)^(0+1280),f,c
  3691   00403C  EF64  F020         	goto	i2l2766
  3692   004040                     i2l2758:
  3693   004040  C52A  F51E         	movff	floorf@u,??_floorf
  3694   004044  C52B  F51F         	movff	floorf@u+1,??_floorf+1
  3695   004048  C52C  F520         	movff	floorf@u+2,??_floorf+2
  3696   00404C  C52D  F521         	movff	floorf@u+3,??_floorf+3
  3697   004050  0E20               	movlw	32
  3698   004052  EF30  F020         	goto	i2u291_40
  3699   004056                     i2u291_45:
  3700   004056  90D8               	bcf	status,0,c
  3701   004058  3221               	rrcf	(??_floorf+3)^(0+1280),f,c
  3702   00405A  3220               	rrcf	(??_floorf+2)^(0+1280),f,c
  3703   00405C  321F               	rrcf	(??_floorf+1)^(0+1280),f,c
  3704   00405E  321E               	rrcf	??_floorf^(0+1280),f,c
  3705   004060                     i2u291_40:
  3706   004060  2EE8               	decfsz	wreg,f,c
  3707   004062  EF2B  F020         	goto	i2u291_45
  3708   004066  501E               	movf	??_floorf^(0+1280),w,c
  3709   004068  101F               	iorwf	(??_floorf+1)^(0+1280),w,c
  3710   00406A  1020               	iorwf	(??_floorf+2)^(0+1280),w,c
  3711   00406C  1021               	iorwf	(??_floorf+3)^(0+1280),w,c
  3712   00406E  A4D8               	btfss	status,2,c
  3713   004070  EF3C  F020         	goto	i2u292_41
  3714   004074  EF3E  F020         	goto	i2u292_40
  3715   004078                     i2u292_41:
  3716   004078  EF48  F020         	goto	i2l2762
  3717   00407C                     i2u292_40:
  3718   00407C  0E00               	movlw	0
  3719   00407E  6E2A               	movwf	floorf@u^(0+1280),c
  3720   004080  0E00               	movlw	0
  3721   004082  6E2B               	movwf	(floorf@u+1)^(0+1280),c
  3722   004084  0E00               	movlw	0
  3723   004086  6E2C               	movwf	(floorf@u+2)^(0+1280),c
  3724   004088  0E00               	movlw	0
  3725   00408A  6E2D               	movwf	(floorf@u+3)^(0+1280),c
  3726   00408C  EF64  F020         	goto	i2l2766
  3727   004090                     i2l2762:
  3728   004090  90D8               	bcf	status,0,c
  3729   004092  342A               	rlcf	floorf@u^(0+1280),w,c
  3730   004094  6E1E               	movwf	??_floorf^(0+1280),c
  3731   004096  342B               	rlcf	(floorf@u+1)^(0+1280),w,c
  3732   004098  6E1F               	movwf	(??_floorf+1)^(0+1280),c
  3733   00409A  342C               	rlcf	(floorf@u+2)^(0+1280),w,c
  3734   00409C  6E20               	movwf	(??_floorf+2)^(0+1280),c
  3735   00409E  342D               	rlcf	(floorf@u+3)^(0+1280),w,c
  3736   0040A0  6E21               	movwf	(??_floorf+3)^(0+1280),c
  3737   0040A2  501E               	movf	??_floorf^(0+1280),w,c
  3738   0040A4  101F               	iorwf	(??_floorf+1)^(0+1280),w,c
  3739   0040A6  1020               	iorwf	(??_floorf+2)^(0+1280),w,c
  3740   0040A8  1021               	iorwf	(??_floorf+3)^(0+1280),w,c
  3741   0040AA  B4D8               	btfsc	status,2,c
  3742   0040AC  EF5A  F020         	goto	i2u293_41
  3743   0040B0  EF5C  F020         	goto	i2u293_40
  3744   0040B4                     i2u293_41:
  3745   0040B4  EF64  F020         	goto	i2l2766
  3746   0040B8                     i2u293_40:
  3747   0040B8  0E00               	movlw	0
  3748   0040BA  6E2A               	movwf	floorf@u^(0+1280),c
  3749   0040BC  0E00               	movlw	0
  3750   0040BE  6E2B               	movwf	(floorf@u+1)^(0+1280),c
  3751   0040C0  0E80               	movlw	128
  3752   0040C2  6E2C               	movwf	(floorf@u+2)^(0+1280),c
  3753   0040C4  0EBF               	movlw	191
  3754   0040C6  6E2D               	movwf	(floorf@u+3)^(0+1280),c
  3755   0040C8                     i2l2766:
  3756   0040C8  C52A  F51A         	movff	floorf@u,?_floorf
  3757   0040CC  C52B  F51B         	movff	floorf@u+1,?_floorf+1
  3758   0040D0  C52C  F51C         	movff	floorf@u+2,?_floorf+2
  3759   0040D4  C52D  F51D         	movff	floorf@u+3,?_floorf+3
  3760   0040D8                     i2l881:
  3761   0040D8  0012               	return		;funcret
  3762   0040DA                     __end_of_floorf:
  3763                           	callstack 0
  3764                           
  3765 ;; *************** function ___fpclassifyf *****************
  3766 ;; Defined at:
  3767 ;;		line 4 in file "C:\Program Files\Microchip\xc8\v2.40\pic\sources\c99\common\__fpclassifyf.c"
  3768 ;; Parameters:    Size  Location     Type
  3769 ;;  x               4    0[COMRAM] float 
  3770 ;; Auto vars:     Size  Location     Type
  3771 ;;  u               4   10[COMRAM] struct .
  3772 ;;  e               2    8[COMRAM] int 
  3773 ;; Return value:  Size  Location     Type
  3774 ;;                  2    0[COMRAM] int 
  3775 ;; Registers used:
  3776 ;;		wreg, status,2, status,0
  3777 ;; Tracked objects:
  3778 ;;		On entry : 0/0
  3779 ;;		On exit  : 0/0
  3780 ;;		Unchanged: 0/0
  3781 ;; Data sizes:     COMRAM   BANK5   BANK6   BANK7   BANK8   BANK9  BANK10  BANK11  BANK12  BANK13  BANK14  BANK15  BANK1
      +6  BANK17  BANK18  BANK19  BANK20  BANK21  BANK22  BANK23  BANK24  BANK25  BANK26  BANK27  BANK28  BANK29  BANK30  BANK3
      +1  BANK32  BANK33  BANK34  BANK35  BANK36
  3782 ;;      Params:         4       0       0       0       0       0       0       0       0       0       0       0       
      +0       0       0       0       0       0       0       0       0       0       0       0       0       0       0       
      +0       0       0       0       0       0
  3783 ;;      Locals:         6       0       0       0       0       0       0       0       0       0       0       0       
      +0       0       0       0       0       0       0       0       0       0       0       0       0       0       0       
      +0       0       0       0       0       0
  3784 ;;      Temps:          4       0       0       0       0       0       0       0       0       0       0       0       
      +0       0       0       0       0       0       0       0       0       0       0       0       0       0       0       
      +0       0       0       0       0       0
  3785 ;;      Totals:        14       0       0       0       0       0       0       0       0       0       0       0       
      +0       0       0       0       0       0       0       0       0       0       0       0       0       0       0       
      +0       0       0       0       0       0
  3786 ;;Total ram usage:       14 bytes
  3787 ;; Hardware stack levels used: 1
  3788 ;; This function calls:
  3789 ;;		Nothing
  3790 ;; This function is called by:
  3791 ;;		_efgtoa
  3792 ;; This function uses a non-reentrant model
  3793 ;;
  3794                           
  3795                           	psect	text14
  3796   004498                     __ptext14:
  3797                           	callstack 0
  3798   004498                     ___fpclassifyf:
  3799                           	callstack 121
  3800   004498  C5BC  F50B         	movff	___fpclassifyf@F465,___fpclassifyf@u
  3801   00449C  C5BD  F50C         	movff	___fpclassifyf@F465+1,___fpclassifyf@u+1
  3802   0044A0  C5BE  F50D         	movff	___fpclassifyf@F465+2,___fpclassifyf@u+2
  3803   0044A4  C5BF  F50E         	movff	___fpclassifyf@F465+3,___fpclassifyf@u+3
  3804   0044A8  C501  F50B         	movff	___fpclassifyf@x,___fpclassifyf@u
  3805   0044AC  C502  F50C         	movff	___fpclassifyf@x+1,___fpclassifyf@u+1
  3806   0044B0  C503  F50D         	movff	___fpclassifyf@x+2,___fpclassifyf@u+2
  3807   0044B4  C504  F50E         	movff	___fpclassifyf@x+3,___fpclassifyf@u+3
  3808   0044B8  C50B  F505         	movff	___fpclassifyf@u,??___fpclassifyf
  3809   0044BC  C50C  F506         	movff	___fpclassifyf@u+1,??___fpclassifyf+1
  3810   0044C0  C50D  F507         	movff	___fpclassifyf@u+2,??___fpclassifyf+2
  3811   0044C4  C50E  F508         	movff	___fpclassifyf@u+3,??___fpclassifyf+3
  3812   0044C8  0E18               	movlw	24
  3813   0044CA  EF6C  F022         	goto	i2u275_40
  3814   0044CE                     i2u275_45:
  3815   0044CE  90D8               	bcf	status,0,c
  3816   0044D0  3208               	rrcf	(??___fpclassifyf+3)^(0+1280),f,c
  3817   0044D2  3207               	rrcf	(??___fpclassifyf+2)^(0+1280),f,c
  3818   0044D4  3206               	rrcf	(??___fpclassifyf+1)^(0+1280),f,c
  3819   0044D6  3205               	rrcf	??___fpclassifyf^(0+1280),f,c
  3820   0044D8                     i2u275_40:
  3821   0044D8  2EE8               	decfsz	wreg,f,c
  3822   0044DA  EF67  F022         	goto	i2u275_45
  3823   0044DE  5005               	movf	??___fpclassifyf^(0+1280),w,c
  3824   0044E0  6E09               	movwf	___fpclassifyf@e^(0+1280),c
  3825   0044E2  6A0A               	clrf	(___fpclassifyf@e+1)^(0+1280),c
  3826   0044E4  5009               	movf	___fpclassifyf@e^(0+1280),w,c
  3827   0044E6  100A               	iorwf	(___fpclassifyf@e+1)^(0+1280),w,c
  3828   0044E8  A4D8               	btfss	status,2,c
  3829   0044EA  EF79  F022         	goto	i2u276_41
  3830   0044EE  EF7B  F022         	goto	i2u276_40
  3831   0044F2                     i2u276_41:
  3832   0044F2  EF9B  F022         	goto	i2l2724
  3833   0044F6                     i2u276_40:
  3834   0044F6  90D8               	bcf	status,0,c
  3835   0044F8  340B               	rlcf	___fpclassifyf@u^(0+1280),w,c
  3836   0044FA  6E05               	movwf	??___fpclassifyf^(0+1280),c
  3837   0044FC  340C               	rlcf	(___fpclassifyf@u+1)^(0+1280),w,c
  3838   0044FE  6E06               	movwf	(??___fpclassifyf+1)^(0+1280),c
  3839   004500  340D               	rlcf	(___fpclassifyf@u+2)^(0+1280),w,c
  3840   004502  6E07               	movwf	(??___fpclassifyf+2)^(0+1280),c
  3841   004504  340E               	rlcf	(___fpclassifyf@u+3)^(0+1280),w,c
  3842   004506  6E08               	movwf	(??___fpclassifyf+3)^(0+1280),c
  3843   004508  5005               	movf	??___fpclassifyf^(0+1280),w,c
  3844   00450A  1006               	iorwf	(??___fpclassifyf+1)^(0+1280),w,c
  3845   00450C  1007               	iorwf	(??___fpclassifyf+2)^(0+1280),w,c
  3846   00450E  1008               	iorwf	(??___fpclassifyf+3)^(0+1280),w,c
  3847   004510  A4D8               	btfss	status,2,c
  3848   004512  EF8D  F022         	goto	i2u277_41
  3849   004516  EF8F  F022         	goto	i2u277_40
  3850   00451A                     i2u277_41:
  3851   00451A  EF95  F022         	goto	i2l2720
  3852   00451E                     i2u277_40:
  3853   00451E  0E00               	movlw	0
  3854   004520  6E02               	movwf	(?___fpclassifyf+1)^(0+1280),c
  3855   004522  0E02               	movlw	2
  3856   004524  6E01               	movwf	?___fpclassifyf^(0+1280),c
  3857   004526  EFCA  F022         	goto	i2l874
  3858   00452A                     i2l2720:
  3859   00452A  0E00               	movlw	0
  3860   00452C  6E02               	movwf	(?___fpclassifyf+1)^(0+1280),c
  3861   00452E  0E03               	movlw	3
  3862   004530  6E01               	movwf	?___fpclassifyf^(0+1280),c
  3863   004532  EFCA  F022         	goto	i2l874
  3864   004536                     i2l2724:
  3865   004536  2809               	incf	___fpclassifyf@e^(0+1280),w,c
  3866   004538  100A               	iorwf	(___fpclassifyf@e+1)^(0+1280),w,c
  3867   00453A  A4D8               	btfss	status,2,c
  3868   00453C  EFA2  F022         	goto	i2u278_41
  3869   004540  EFA4  F022         	goto	i2u278_40
  3870   004544                     i2u278_41:
  3871   004544  EFC6  F022         	goto	i2l2730
  3872   004548                     i2u278_40:
  3873   004548  C50B  F505         	movff	___fpclassifyf@u,??___fpclassifyf
  3874   00454C  C50C  F506         	movff	___fpclassifyf@u+1,??___fpclassifyf+1
  3875   004550  C50D  F507         	movff	___fpclassifyf@u+2,??___fpclassifyf+2
  3876   004554  C50E  F508         	movff	___fpclassifyf@u+3,??___fpclassifyf+3
  3877   004558  0E09               	movlw	9
  3878   00455A                     i2u279_45:
  3879   00455A  90D8               	bcf	status,0,c
  3880   00455C  3605               	rlcf	??___fpclassifyf^(0+1280),f,c
  3881   00455E  3606               	rlcf	(??___fpclassifyf+1)^(0+1280),f,c
  3882   004560  3607               	rlcf	(??___fpclassifyf+2)^(0+1280),f,c
  3883   004562  3608               	rlcf	(??___fpclassifyf+3)^(0+1280),f,c
  3884   004564  2EE8               	decfsz	wreg,f,c
  3885   004566  EFAD  F022         	goto	i2u279_45
  3886   00456A  5005               	movf	??___fpclassifyf^(0+1280),w,c
  3887   00456C  1006               	iorwf	(??___fpclassifyf+1)^(0+1280),w,c
  3888   00456E  1007               	iorwf	(??___fpclassifyf+2)^(0+1280),w,c
  3889   004570  1008               	iorwf	(??___fpclassifyf+3)^(0+1280),w,c
  3890   004572  B4D8               	btfsc	status,2,c
  3891   004574  EFBE  F022         	goto	i2u280_41
  3892   004578  EFC1  F022         	goto	i2u280_40
  3893   00457C                     i2u280_41:
  3894   00457C  0E01               	movlw	1
  3895   00457E  EFC2  F022         	goto	i2u281_40
  3896   004582                     i2u280_40:
  3897   004582  0E00               	movlw	0
  3898   004584                     i2u281_40:
  3899   004584  6E01               	movwf	?___fpclassifyf^(0+1280),c
  3900   004586  6A02               	clrf	(?___fpclassifyf+1)^(0+1280),c
  3901   004588  EFCA  F022         	goto	i2l874
  3902   00458C                     i2l2730:
  3903   00458C  0E00               	movlw	0
  3904   00458E  6E02               	movwf	(?___fpclassifyf+1)^(0+1280),c
  3905   004590  0E04               	movlw	4
  3906   004592  6E01               	movwf	?___fpclassifyf^(0+1280),c
  3907   004594                     i2l874:
  3908   004594  0012               	return		;funcret
  3909   004596                     __end_of___fpclassifyf:
  3910                           	callstack 0
  3911                           
  3912 ;; *************** function ___fltol *****************
  3913 ;; Defined at:
  3914 ;;		line 43 in file "C:\Program Files\Microchip\xc8\v2.40\pic\sources\c99\common\fltol.c"
  3915 ;; Parameters:    Size  Location     Type
  3916 ;;  f1              4    0[COMRAM] int 
  3917 ;; Auto vars:     Size  Location     Type
  3918 ;;  exp1            1    9[COMRAM] unsigned char 
  3919 ;;  sign1           1    8[COMRAM] unsigned char 
  3920 ;; Return value:  Size  Location     Type
  3921 ;;                  4    0[COMRAM] long 
  3922 ;; Registers used:
  3923 ;;		wreg, status,2, status,0
  3924 ;; Tracked objects:
  3925 ;;		On entry : 0/0
  3926 ;;		On exit  : 0/0
  3927 ;;		Unchanged: 0/0
  3928 ;; Data sizes:     COMRAM   BANK5   BANK6   BANK7   BANK8   BANK9  BANK10  BANK11  BANK12  BANK13  BANK14  BANK15  BANK1
      +6  BANK17  BANK18  BANK19  BANK20  BANK21  BANK22  BANK23  BANK24  BANK25  BANK26  BANK27  BANK28  BANK29  BANK30  BANK3
      +1  BANK32  BANK33  BANK34  BANK35  BANK36
  3929 ;;      Params:         4       0       0       0       0       0       0       0       0       0       0       0       
      +0       0       0       0       0       0       0       0       0       0       0       0       0       0       0       
      +0       0       0       0       0       0
  3930 ;;      Locals:         2       0       0       0       0       0       0       0       0       0       0       0       
      +0       0       0       0       0       0       0       0       0       0       0       0       0       0       0       
      +0       0       0       0       0       0
  3931 ;;      Temps:          4       0       0       0       0       0       0       0       0       0       0       0       
      +0       0       0       0       0       0       0       0       0       0       0       0       0       0       0       
      +0       0       0       0       0       0
  3932 ;;      Totals:        10       0       0       0       0       0       0       0       0       0       0       0       
      +0       0       0       0       0       0       0       0       0       0       0       0       0       0       0       
      +0       0       0       0       0       0
  3933 ;;Total ram usage:       10 bytes
  3934 ;; Hardware stack levels used: 1
  3935 ;; This function calls:
  3936 ;;		Nothing
  3937 ;; This function is called by:
  3938 ;;		_efgtoa
  3939 ;; This function uses a non-reentrant model
  3940 ;;
  3941                           
  3942                           	psect	text15
  3943   00428E                     __ptext15:
  3944                           	callstack 0
  3945   00428E                     ___fltol:
  3946                           	callstack 121
  3947   00428E  3403               	rlcf	(___fltol@f1+2)^(0+1280),w,c
  3948   004290  3404               	rlcf	(___fltol@f1+3)^(0+1280),w,c
  3949   004292  6E0A               	movwf	___fltol@exp1^(0+1280),c
  3950   004294  500A               	movf	___fltol@exp1^(0+1280),w,c
  3951   004296  A4D8               	btfss	status,2,c
  3952   004298  EF50  F021         	goto	i2u266_41
  3953   00429C  EF52  F021         	goto	i2u266_40
  3954   0042A0                     i2u266_41:
  3955   0042A0  EF5C  F021         	goto	i2l2660
  3956   0042A4                     i2u266_40:
  3957   0042A4                     i2l2656:
  3958   0042A4  0E00               	movlw	0
  3959   0042A6  6E01               	movwf	?___fltol^(0+1280),c
  3960   0042A8  0E00               	movlw	0
  3961   0042AA  6E02               	movwf	(?___fltol+1)^(0+1280),c
  3962   0042AC  0E00               	movlw	0
  3963   0042AE  6E03               	movwf	(?___fltol+2)^(0+1280),c
  3964   0042B0  0E00               	movlw	0
  3965   0042B2  6E04               	movwf	(?___fltol+3)^(0+1280),c
  3966   0042B4  EFC9  F021         	goto	i2l371
  3967   0042B8                     i2l2660:
  3968   0042B8  C501  F505         	movff	___fltol@f1,??___fltol
  3969   0042BC  C502  F506         	movff	___fltol@f1+1,??___fltol+1
  3970   0042C0  C503  F507         	movff	___fltol@f1+2,??___fltol+2
  3971   0042C4  C504  F508         	movff	___fltol@f1+3,??___fltol+3
  3972   0042C8  0E20               	movlw	32
  3973   0042CA  EF6C  F021         	goto	i2u267_40
  3974   0042CE                     i2u267_45:
  3975   0042CE  90D8               	bcf	status,0,c
  3976   0042D0  3208               	rrcf	(??___fltol+3)^(0+1280),f,c
  3977   0042D2  3207               	rrcf	(??___fltol+2)^(0+1280),f,c
  3978   0042D4  3206               	rrcf	(??___fltol+1)^(0+1280),f,c
  3979   0042D6  3205               	rrcf	??___fltol^(0+1280),f,c
  3980   0042D8                     i2u267_40:
  3981   0042D8  2EE8               	decfsz	wreg,f,c
  3982   0042DA  EF67  F021         	goto	i2u267_45
  3983   0042DE  5005               	movf	??___fltol^(0+1280),w,c
  3984   0042E0  6E09               	movwf	___fltol@sign1^(0+1280),c
  3985   0042E2  8E03               	bsf	(___fltol@f1+2)^(0+1280),7,c
  3986   0042E4  0EFF               	movlw	255
  3987   0042E6  1601               	andwf	___fltol@f1^(0+1280),f,c
  3988   0042E8  0EFF               	movlw	255
  3989   0042EA  1602               	andwf	(___fltol@f1+1)^(0+1280),f,c
  3990   0042EC  0EFF               	movlw	255
  3991   0042EE  1603               	andwf	(___fltol@f1+2)^(0+1280),f,c
  3992   0042F0  0E00               	movlw	0
  3993   0042F2  1604               	andwf	(___fltol@f1+3)^(0+1280),f,c
  3994   0042F4  0E96               	movlw	150
  3995   0042F6  5E0A               	subwf	___fltol@exp1^(0+1280),f,c
  3996   0042F8  BE0A               	btfsc	___fltol@exp1^(0+1280),7,c
  3997   0042FA  EF83  F021         	goto	i2u268_40
  3998   0042FE  EF81  F021         	goto	i2u268_41
  3999   004302                     i2u268_41:
  4000   004302  EF99  F021         	goto	i2l2680
  4001   004306                     i2u268_40:
  4002   004306  500A               	movf	___fltol@exp1^(0+1280),w,c
  4003   004308  0A80               	xorlw	128
  4004   00430A  0F97               	addlw	151
  4005   00430C  B0D8               	btfsc	status,0,c
  4006   00430E  EF8B  F021         	goto	i2u269_41
  4007   004312  EF8D  F021         	goto	i2u269_40
  4008   004316                     i2u269_41:
  4009   004316  EF8F  F021         	goto	i2l2676
  4010   00431A                     i2u269_40:
  4011   00431A  EF52  F021         	goto	i2l2656
  4012   00431E                     i2l2676:
  4013   00431E  90D8               	bcf	status,0,c
  4014   004320  3204               	rrcf	(___fltol@f1+3)^(0+1280),f,c
  4015   004322  3203               	rrcf	(___fltol@f1+2)^(0+1280),f,c
  4016   004324  3202               	rrcf	(___fltol@f1+1)^(0+1280),f,c
  4017   004326  3201               	rrcf	___fltol@f1^(0+1280),f,c
  4018   004328  3E0A               	incfsz	___fltol@exp1^(0+1280),f,c
  4019   00432A  EF8F  F021         	goto	i2l2676
  4020   00432E  EFB1  F021         	goto	i2l2690
  4021   004332                     i2l2680:
  4022   004332  0E1F               	movlw	31
  4023   004334  640A               	cpfsgt	___fltol@exp1^(0+1280),c
  4024   004336  EF9F  F021         	goto	i2u270_41
  4025   00433A  EFA1  F021         	goto	i2u270_40
  4026   00433E                     i2u270_41:
  4027   00433E  EFA9  F021         	goto	i2l2688
  4028   004342                     i2u270_40:
  4029   004342  EF52  F021         	goto	i2l2656
  4030   004346                     i2l2686:
  4031   004346  90D8               	bcf	status,0,c
  4032   004348  3601               	rlcf	___fltol@f1^(0+1280),f,c
  4033   00434A  3602               	rlcf	(___fltol@f1+1)^(0+1280),f,c
  4034   00434C  3603               	rlcf	(___fltol@f1+2)^(0+1280),f,c
  4035   00434E  3604               	rlcf	(___fltol@f1+3)^(0+1280),f,c
  4036   004350  060A               	decf	___fltol@exp1^(0+1280),f,c
  4037   004352                     i2l2688:
  4038   004352  500A               	movf	___fltol@exp1^(0+1280),w,c
  4039   004354  A4D8               	btfss	status,2,c
  4040   004356  EFAF  F021         	goto	i2u271_41
  4041   00435A  EFB1  F021         	goto	i2u271_40
  4042   00435E                     i2u271_41:
  4043   00435E  EFA3  F021         	goto	i2l2686
  4044   004362                     i2u271_40:
  4045   004362                     i2l2690:
  4046   004362  5009               	movf	___fltol@sign1^(0+1280),w,c
  4047   004364  B4D8               	btfsc	status,2,c
  4048   004366  EFB7  F021         	goto	i2u272_41
  4049   00436A  EFB9  F021         	goto	i2u272_40
  4050   00436E                     i2u272_41:
  4051   00436E  EFC1  F021         	goto	i2l2694
  4052   004372                     i2u272_40:
  4053   004372  1E04               	comf	(___fltol@f1+3)^(0+1280),f,c
  4054   004374  1E03               	comf	(___fltol@f1+2)^(0+1280),f,c
  4055   004376  1E02               	comf	(___fltol@f1+1)^(0+1280),f,c
  4056   004378  6C01               	negf	___fltol@f1^(0+1280),c
  4057   00437A  0E00               	movlw	0
  4058   00437C  2202               	addwfc	(___fltol@f1+1)^(0+1280),f,c
  4059   00437E  2203               	addwfc	(___fltol@f1+2)^(0+1280),f,c
  4060   004380  2204               	addwfc	(___fltol@f1+3)^(0+1280),f,c
  4061   004382                     i2l2694:
  4062   004382  C501  F501         	movff	___fltol@f1,?___fltol
  4063   004386  C502  F502         	movff	___fltol@f1+1,?___fltol+1
  4064   00438A  C503  F503         	movff	___fltol@f1+2,?___fltol+2
  4065   00438E  C504  F504         	movff	___fltol@f1+3,?___fltol+3
  4066   004392                     i2l371:
  4067   004392  0012               	return		;funcret
  4068   004394                     __end_of___fltol:
  4069                           	callstack 0
  4070                           
  4071 ;; *************** function ___flsub *****************
  4072 ;; Defined at:
  4073 ;;		line 245 in file "C:\Program Files\Microchip\xc8\v2.40\pic\sources\c99\common\sprcadd.c"
  4074 ;; Parameters:    Size  Location     Type
  4075 ;;  b               4   39[COMRAM] long 
  4076 ;;  a               4   43[COMRAM] long 
  4077 ;; Auto vars:     Size  Location     Type
  4078 ;;		None
  4079 ;; Return value:  Size  Location     Type
  4080 ;;                  4   39[COMRAM] long 
  4081 ;; Registers used:
  4082 ;;		wreg, status,2, status,0, cstack
  4083 ;; Tracked objects:
  4084 ;;		On entry : 0/0
  4085 ;;		On exit  : 0/0
  4086 ;;		Unchanged: 0/0
  4087 ;; Data sizes:     COMRAM   BANK5   BANK6   BANK7   BANK8   BANK9  BANK10  BANK11  BANK12  BANK13  BANK14  BANK15  BANK1
      +6  BANK17  BANK18  BANK19  BANK20  BANK21  BANK22  BANK23  BANK24  BANK25  BANK26  BANK27  BANK28  BANK29  BANK30  BANK3
      +1  BANK32  BANK33  BANK34  BANK35  BANK36
  4088 ;;      Params:         8       0       0       0       0       0       0       0       0       0       0       0       
      +0       0       0       0       0       0       0       0       0       0       0       0       0       0       0       
      +0       0       0       0       0       0
  4089 ;;      Locals:         0       0       0       0       0       0       0       0       0       0       0       0       
      +0       0       0       0       0       0       0       0       0       0       0       0       0       0       0       
      +0       0       0       0       0       0
  4090 ;;      Temps:          0       0       0       0       0       0       0       0       0       0       0       0       
      +0       0       0       0       0       0       0       0       0       0       0       0       0       0       0       
      +0       0       0       0       0       0
  4091 ;;      Totals:         8       0       0       0       0       0       0       0       0       0       0       0       
      +0       0       0       0       0       0       0       0       0       0       0       0       0       0       0       
      +0       0       0       0       0       0
  4092 ;;Total ram usage:        8 bytes
  4093 ;; Hardware stack levels used: 1
  4094 ;; Hardware stack levels required when called: 1
  4095 ;; This function calls:
  4096 ;;		___fladd
  4097 ;; This function is called by:
  4098 ;;		_efgtoa
  4099 ;; This function uses a non-reentrant model
  4100 ;;
  4101                           
  4102                           	psect	text16
  4103   004A46                     __ptext16:
  4104                           	callstack 0
  4105   004A46                     ___flsub:
  4106                           	callstack 120
  4107   004A46  0E00               	movlw	0
  4108   004A48  1A2C               	xorwf	___flsub@a^(0+1280),f,c
  4109   004A4A  0E00               	movlw	0
  4110   004A4C  1A2D               	xorwf	(___flsub@a+1)^(0+1280),f,c
  4111   004A4E  0E00               	movlw	0
  4112   004A50  1A2E               	xorwf	(___flsub@a+2)^(0+1280),f,c
  4113   004A52  0E80               	movlw	128
  4114   004A54  1A2F               	xorwf	(___flsub@a+3)^(0+1280),f,c
  4115   004A56  C528  F501         	movff	___flsub@b,___fladd@b
  4116   004A5A  C529  F502         	movff	___flsub@b+1,___fladd@b+1
  4117   004A5E  C52A  F503         	movff	___flsub@b+2,___fladd@b+2
  4118   004A62  C52B  F504         	movff	___flsub@b+3,___fladd@b+3
  4119   004A66  C52C  F505         	movff	___flsub@a,___fladd@a
  4120   004A6A  C52D  F506         	movff	___flsub@a+1,___fladd@a+1
  4121   004A6E  C52E  F507         	movff	___flsub@a+2,___fladd@a+2
  4122   004A72  C52F  F508         	movff	___flsub@a+3,___fladd@a+3
  4123   004A76  EC0A  F018         	call	___fladd	;wreg free
  4124   004A7A  C501  F528         	movff	?___fladd,?___flsub
  4125   004A7E  C502  F529         	movff	?___fladd+1,?___flsub+1
  4126   004A82  C503  F52A         	movff	?___fladd+2,?___flsub+2
  4127   004A86  C504  F52B         	movff	?___fladd+3,?___flsub+3
  4128   004A8A  0012               	return		;funcret
  4129   004A8C                     __end_of___flsub:
  4130                           	callstack 0
  4131                           
  4132 ;; *************** function ___fladd *****************
  4133 ;; Defined at:
  4134 ;;		line 10 in file "C:\Program Files\Microchip\xc8\v2.40\pic\sources\c99\common\sprcadd.c"
  4135 ;; Parameters:    Size  Location     Type
  4136 ;;  b               4    0[COMRAM] long 
  4137 ;;  a               4    4[COMRAM] long 
  4138 ;; Auto vars:     Size  Location     Type
  4139 ;;  grs             1   15[COMRAM] unsigned char 
  4140 ;;  bexp            1   14[COMRAM] unsigned char 
  4141 ;;  aexp            1   13[COMRAM] unsigned char 
  4142 ;;  signs           1   12[COMRAM] unsigned char 
  4143 ;; Return value:  Size  Location     Type
  4144 ;;                  4    0[COMRAM] unsigned char 
  4145 ;; Registers used:
  4146 ;;		wreg, status,2, status,0
  4147 ;; Tracked objects:
  4148 ;;		On entry : 0/0
  4149 ;;		On exit  : 0/0
  4150 ;;		Unchanged: 0/0
  4151 ;; Data sizes:     COMRAM   BANK5   BANK6   BANK7   BANK8   BANK9  BANK10  BANK11  BANK12  BANK13  BANK14  BANK15  BANK1
      +6  BANK17  BANK18  BANK19  BANK20  BANK21  BANK22  BANK23  BANK24  BANK25  BANK26  BANK27  BANK28  BANK29  BANK30  BANK3
      +1  BANK32  BANK33  BANK34  BANK35  BANK36
  4152 ;;      Params:         8       0       0       0       0       0       0       0       0       0       0       0       
      +0       0       0       0       0       0       0       0       0       0       0       0       0       0       0       
      +0       0       0       0       0       0
  4153 ;;      Locals:         4       0       0       0       0       0       0       0       0       0       0       0       
      +0       0       0       0       0       0       0       0       0       0       0       0       0       0       0       
      +0       0       0       0       0       0
  4154 ;;      Temps:          4       0       0       0       0       0       0       0       0       0       0       0       
      +0       0       0       0       0       0       0       0       0       0       0       0       0       0       0       
      +0       0       0       0       0       0
  4155 ;;      Totals:        16       0       0       0       0       0       0       0       0       0       0       0       
      +0       0       0       0       0       0       0       0       0       0       0       0       0       0       0       
      +0       0       0       0       0       0
  4156 ;;Total ram usage:       16 bytes
  4157 ;; Hardware stack levels used: 1
  4158 ;; This function calls:
  4159 ;;		Nothing
  4160 ;; This function is called by:
  4161 ;;		___flsub
  4162 ;;		_efgtoa
  4163 ;; This function uses a non-reentrant model
  4164 ;;
  4165                           
  4166                           	psect	text17
  4167   003014                     __ptext17:
  4168                           	callstack 0
  4169   003014                     ___fladd:
  4170                           	callstack 120
  4171   003014  5004               	movf	(___fladd@b+3)^(0+1280),w,c
  4172   003016  0B80               	andlw	128
  4173   003018  6E0D               	movwf	___fladd@signs^(0+1280),c
  4174   00301A  5004               	movf	(___fladd@b+3)^(0+1280),w,c
  4175   00301C  2404               	addwf	(___fladd@b+3)^(0+1280),w,c
  4176   00301E  6E0F               	movwf	___fladd@bexp^(0+1280),c
  4177   003020  AE03               	btfss	(___fladd@b+2)^(0+1280),7,c
  4178   003022  EF15  F018         	goto	i2u175_41
  4179   003026  EF17  F018         	goto	i2u175_40
  4180   00302A                     i2u175_41:
  4181   00302A  EF18  F018         	goto	i2l2130
  4182   00302E                     i2u175_40:
  4183   00302E  800F               	bsf	___fladd@bexp^(0+1280),0,c
  4184   003030                     i2l2130:
  4185   003030  500F               	movf	___fladd@bexp^(0+1280),w,c
  4186   003032  B4D8               	btfsc	status,2,c
  4187   003034  EF1E  F018         	goto	i2u176_41
  4188   003038  EF20  F018         	goto	i2u176_40
  4189   00303C                     i2u176_41:
  4190   00303C  EF35  F018         	goto	i2l2140
  4191   003040                     i2u176_40:
  4192   003040  280F               	incf	___fladd@bexp^(0+1280),w,c
  4193   003042  A4D8               	btfss	status,2,c
  4194   003044  EF26  F018         	goto	i2u177_41
  4195   003048  EF28  F018         	goto	i2u177_40
  4196   00304C                     i2u177_41:
  4197   00304C  EF30  F018         	goto	i2l2136
  4198   003050                     i2u177_40:
  4199   003050  0E00               	movlw	0
  4200   003052  6E01               	movwf	___fladd@b^(0+1280),c
  4201   003054  0E00               	movlw	0
  4202   003056  6E02               	movwf	(___fladd@b+1)^(0+1280),c
  4203   003058  0E00               	movlw	0
  4204   00305A  6E03               	movwf	(___fladd@b+2)^(0+1280),c
  4205   00305C  0E00               	movlw	0
  4206   00305E  6E04               	movwf	(___fladd@b+3)^(0+1280),c
  4207   003060                     i2l2136:
  4208   003060  8E03               	bsf	(___fladd@b+2)^(0+1280),7,c
  4209   003062  0E00               	movlw	0
  4210   003064  6E04               	movwf	(___fladd@b+3)^(0+1280),c
  4211   003066  EF3D  F018         	goto	i2l2142
  4212   00306A                     i2l2140:
  4213   00306A  0E00               	movlw	0
  4214   00306C  6E01               	movwf	___fladd@b^(0+1280),c
  4215   00306E  0E00               	movlw	0
  4216   003070  6E02               	movwf	(___fladd@b+1)^(0+1280),c
  4217   003072  0E00               	movlw	0
  4218   003074  6E03               	movwf	(___fladd@b+2)^(0+1280),c
  4219   003076  0E00               	movlw	0
  4220   003078  6E04               	movwf	(___fladd@b+3)^(0+1280),c
  4221   00307A                     i2l2142:
  4222   00307A  5008               	movf	(___fladd@a+3)^(0+1280),w,c
  4223   00307C  0B80               	andlw	128
  4224   00307E  6E0E               	movwf	___fladd@aexp^(0+1280),c
  4225   003080  500D               	movf	___fladd@signs^(0+1280),w,c
  4226   003082  180E               	xorwf	___fladd@aexp^(0+1280),w,c
  4227   003084  B4D8               	btfsc	status,2,c
  4228   003086  EF47  F018         	goto	i2u178_41
  4229   00308A  EF49  F018         	goto	i2u178_40
  4230   00308E                     i2u178_41:
  4231   00308E  EF4A  F018         	goto	i2l2148
  4232   003092                     i2u178_40:
  4233   003092  8C0D               	bsf	___fladd@signs^(0+1280),6,c
  4234   003094                     i2l2148:
  4235   003094  5008               	movf	(___fladd@a+3)^(0+1280),w,c
  4236   003096  2408               	addwf	(___fladd@a+3)^(0+1280),w,c
  4237   003098  6E0E               	movwf	___fladd@aexp^(0+1280),c
  4238   00309A  AE07               	btfss	(___fladd@a+2)^(0+1280),7,c
  4239   00309C  EF52  F018         	goto	i2u179_41
  4240   0030A0  EF54  F018         	goto	i2u179_40
  4241   0030A4                     i2u179_41:
  4242   0030A4  EF55  F018         	goto	i2l2154
  4243   0030A8                     i2u179_40:
  4244   0030A8  800E               	bsf	___fladd@aexp^(0+1280),0,c
  4245   0030AA                     i2l2154:
  4246   0030AA  500E               	movf	___fladd@aexp^(0+1280),w,c
  4247   0030AC  B4D8               	btfsc	status,2,c
  4248   0030AE  EF5B  F018         	goto	i2u180_41
  4249   0030B2  EF5D  F018         	goto	i2u180_40
  4250   0030B6                     i2u180_41:
  4251   0030B6  EF72  F018         	goto	i2l2164
  4252   0030BA                     i2u180_40:
  4253   0030BA  280E               	incf	___fladd@aexp^(0+1280),w,c
  4254   0030BC  A4D8               	btfss	status,2,c
  4255   0030BE  EF63  F018         	goto	i2u181_41
  4256   0030C2  EF65  F018         	goto	i2u181_40
  4257   0030C6                     i2u181_41:
  4258   0030C6  EF6D  F018         	goto	i2l2160
  4259   0030CA                     i2u181_40:
  4260   0030CA  0E00               	movlw	0
  4261   0030CC  6E05               	movwf	___fladd@a^(0+1280),c
  4262   0030CE  0E00               	movlw	0
  4263   0030D0  6E06               	movwf	(___fladd@a+1)^(0+1280),c
  4264   0030D2  0E00               	movlw	0
  4265   0030D4  6E07               	movwf	(___fladd@a+2)^(0+1280),c
  4266   0030D6  0E00               	movlw	0
  4267   0030D8  6E08               	movwf	(___fladd@a+3)^(0+1280),c
  4268   0030DA                     i2l2160:
  4269   0030DA  8E07               	bsf	(___fladd@a+2)^(0+1280),7,c
  4270   0030DC  0E00               	movlw	0
  4271   0030DE  6E08               	movwf	(___fladd@a+3)^(0+1280),c
  4272   0030E0  EF7A  F018         	goto	i2l2166
  4273   0030E4                     i2l2164:
  4274   0030E4  0E00               	movlw	0
  4275   0030E6  6E05               	movwf	___fladd@a^(0+1280),c
  4276   0030E8  0E00               	movlw	0
  4277   0030EA  6E06               	movwf	(___fladd@a+1)^(0+1280),c
  4278   0030EC  0E00               	movlw	0
  4279   0030EE  6E07               	movwf	(___fladd@a+2)^(0+1280),c
  4280   0030F0  0E00               	movlw	0
  4281   0030F2  6E08               	movwf	(___fladd@a+3)^(0+1280),c
  4282   0030F4                     i2l2166:
  4283   0030F4  500F               	movf	___fladd@bexp^(0+1280),w,c
  4284   0030F6  5C0E               	subwf	___fladd@aexp^(0+1280),w,c
  4285   0030F8  B0D8               	btfsc	status,0,c
  4286   0030FA  EF81  F018         	goto	i2u182_41
  4287   0030FE  EF83  F018         	goto	i2u182_40
  4288   003102                     i2u182_41:
  4289   003102  EFAA  F018         	goto	i2l2202
  4290   003106                     i2u182_40:
  4291   003106  AC0D               	btfss	___fladd@signs^(0+1280),6,c
  4292   003108  EF88  F018         	goto	i2u183_41
  4293   00310C  EF8A  F018         	goto	i2u183_40
  4294   003110                     i2u183_41:
  4295   003110  EF8C  F018         	goto	i2l2172
  4296   003114                     i2u183_40:
  4297   003114  0E80               	movlw	128
  4298   003116  1A0D               	xorwf	___fladd@signs^(0+1280),f,c
  4299   003118                     i2l2172:
  4300   003118  C50F  F510         	movff	___fladd@bexp,___fladd@grs
  4301   00311C  C50E  F50F         	movff	___fladd@aexp,___fladd@bexp
  4302   003120  C510  F50E         	movff	___fladd@grs,___fladd@aexp
  4303   003124  C501  F510         	movff	___fladd@b,___fladd@grs
  4304   003128  C505  F501         	movff	___fladd@a,___fladd@b
  4305   00312C  C510  F505         	movff	___fladd@grs,___fladd@a
  4306   003130  C502  F510         	movff	___fladd@b+1,___fladd@grs
  4307   003134  C506  F502         	movff	___fladd@a+1,___fladd@b+1
  4308   003138  C510  F506         	movff	___fladd@grs,___fladd@a+1
  4309   00313C  C503  F510         	movff	___fladd@b+2,___fladd@grs
  4310   003140  C507  F503         	movff	___fladd@a+2,___fladd@b+2
  4311   003144  C510  F507         	movff	___fladd@grs,___fladd@a+2
  4312   003148  C504  F510         	movff	___fladd@b+3,___fladd@grs
  4313   00314C  C508  F504         	movff	___fladd@a+3,___fladd@b+3
  4314   003150  C510  F508         	movff	___fladd@grs,___fladd@a+3
  4315   003154                     i2l2202:
  4316   003154  0E00               	movlw	0
  4317   003156  6E10               	movwf	___fladd@grs^(0+1280),c
  4318   003158  500F               	movf	___fladd@bexp^(0+1280),w,c
  4319   00315A  C50E  F509         	movff	___fladd@aexp,??___fladd
  4320   00315E  6A0A               	clrf	(??___fladd+1)^(0+1280),c
  4321   003160  5E09               	subwf	??___fladd^(0+1280),f,c
  4322   003162  0E00               	movlw	0
  4323   003164  5A0A               	subwfb	(??___fladd+1)^(0+1280),f,c
  4324   003166  BE0A               	btfsc	(??___fladd+1)^(0+1280),7,c
  4325   003168  EFBF  F018         	goto	i2u184_41
  4326   00316C  500A               	movf	(??___fladd+1)^(0+1280),w,c
  4327   00316E  E109               	bnz	i2u184_40
  4328   003170  0E1A               	movlw	26
  4329   003172  5C09               	subwf	??___fladd^(0+1280),w,c
  4330   003174  A0D8               	btfss	status,0,c
  4331   003176  EFBF  F018         	goto	i2u184_41
  4332   00317A  EFC1  F018         	goto	i2u184_40
  4333   00317E                     i2u184_41:
  4334   00317E  EFF8  F018         	goto	i2l603
  4335   003182                     i2u184_40:
  4336   003182  5001               	movf	___fladd@b^(0+1280),w,c
  4337   003184  1002               	iorwf	(___fladd@b+1)^(0+1280),w,c
  4338   003186  1003               	iorwf	(___fladd@b+2)^(0+1280),w,c
  4339   003188  1004               	iorwf	(___fladd@b+3)^(0+1280),w,c
  4340   00318A  A4D8               	btfss	status,2,c
  4341   00318C  EFCA  F018         	goto	i2u185_41
  4342   003190  EFCD  F018         	goto	i2u185_40
  4343   003194                     i2u185_41:
  4344   003194  0E01               	movlw	1
  4345   003196  EFCE  F018         	goto	i2u186_40
  4346   00319A                     i2u185_40:
  4347   00319A  0E00               	movlw	0
  4348   00319C                     i2u186_40:
  4349   00319C  6E10               	movwf	___fladd@grs^(0+1280),c
  4350   00319E  0E00               	movlw	0
  4351   0031A0  6E01               	movwf	___fladd@b^(0+1280),c
  4352   0031A2  0E00               	movlw	0
  4353   0031A4  6E02               	movwf	(___fladd@b+1)^(0+1280),c
  4354   0031A6  0E00               	movlw	0
  4355   0031A8  6E03               	movwf	(___fladd@b+2)^(0+1280),c
  4356   0031AA  0E00               	movlw	0
  4357   0031AC  6E04               	movwf	(___fladd@b+3)^(0+1280),c
  4358   0031AE  C50E  F50F         	movff	___fladd@aexp,___fladd@bexp
  4359   0031B2  EF01  F019         	goto	i2l602
  4360   0031B6                     i2l604:
  4361   0031B6  A010               	btfss	___fladd@grs^(0+1280),0,c
  4362   0031B8  EFE0  F018         	goto	i2u187_41
  4363   0031BC  EFE2  F018         	goto	i2u187_40
  4364   0031C0                     i2u187_41:
  4365   0031C0  EFE8  F018         	goto	i2l2214
  4366   0031C4                     i2u187_40:
  4367   0031C4  90D8               	bcf	status,0,c
  4368   0031C6  3010               	rrcf	___fladd@grs^(0+1280),w,c
  4369   0031C8  0901               	iorlw	1
  4370   0031CA  6E10               	movwf	___fladd@grs^(0+1280),c
  4371   0031CC  EFEA  F018         	goto	i2l2216
  4372   0031D0                     i2l2214:
  4373   0031D0  90D8               	bcf	status,0,c
  4374   0031D2  3210               	rrcf	___fladd@grs^(0+1280),f,c
  4375   0031D4                     i2l2216:
  4376   0031D4  A001               	btfss	___fladd@b^(0+1280),0,c
  4377   0031D6  EFEF  F018         	goto	i2u188_41
  4378   0031DA  EFF1  F018         	goto	i2u188_40
  4379   0031DE                     i2u188_41:
  4380   0031DE  EFF2  F018         	goto	i2l2220
  4381   0031E2                     i2u188_40:
  4382   0031E2  8E10               	bsf	___fladd@grs^(0+1280),7,c
  4383   0031E4                     i2l2220:
  4384   0031E4  3404               	rlcf	(___fladd@b+3)^(0+1280),w,c
  4385   0031E6  3204               	rrcf	(___fladd@b+3)^(0+1280),f,c
  4386   0031E8  3203               	rrcf	(___fladd@b+2)^(0+1280),f,c
  4387   0031EA  3202               	rrcf	(___fladd@b+1)^(0+1280),f,c
  4388   0031EC  3201               	rrcf	___fladd@b^(0+1280),f,c
  4389   0031EE  2A0F               	incf	___fladd@bexp^(0+1280),f,c
  4390   0031F0                     i2l603:
  4391   0031F0  500E               	movf	___fladd@aexp^(0+1280),w,c
  4392   0031F2  5C0F               	subwf	___fladd@bexp^(0+1280),w,c
  4393   0031F4  A0D8               	btfss	status,0,c
  4394   0031F6  EFFF  F018         	goto	i2u189_41
  4395   0031FA  EF01  F019         	goto	i2u189_40
  4396   0031FE                     i2u189_41:
  4397   0031FE  EFDB  F018         	goto	i2l604
  4398   003202                     i2u189_40:
  4399   003202                     i2l602:
  4400   003202  BC0D               	btfsc	___fladd@signs^(0+1280),6,c
  4401   003204  EF06  F019         	goto	i2u190_41
  4402   003208  EF08  F019         	goto	i2u190_40
  4403   00320C                     i2u190_41:
  4404   00320C  EF48  F019         	goto	i2l2248
  4405   003210                     i2u190_40:
  4406   003210  500F               	movf	___fladd@bexp^(0+1280),w,c
  4407   003212  A4D8               	btfss	status,2,c
  4408   003214  EF0E  F019         	goto	i2u191_41
  4409   003218  EF10  F019         	goto	i2u191_40
  4410   00321C                     i2u191_41:
  4411   00321C  EF1A  F019         	goto	i2l2230
  4412   003220                     i2u191_40:
  4413   003220  0E00               	movlw	0
  4414   003222  6E01               	movwf	?___fladd^(0+1280),c
  4415   003224  0E00               	movlw	0
  4416   003226  6E02               	movwf	(?___fladd+1)^(0+1280),c
  4417   003228  0E00               	movlw	0
  4418   00322A  6E03               	movwf	(?___fladd+2)^(0+1280),c
  4419   00322C  0E00               	movlw	0
  4420   00322E  6E04               	movwf	(?___fladd+3)^(0+1280),c
  4421   003230  EF69  F01A         	goto	i2l611
  4422   003234                     i2l2230:
  4423   003234  5005               	movf	___fladd@a^(0+1280),w,c
  4424   003236  2601               	addwf	___fladd@b^(0+1280),f,c
  4425   003238  5006               	movf	(___fladd@a+1)^(0+1280),w,c
  4426   00323A  2202               	addwfc	(___fladd@b+1)^(0+1280),f,c
  4427   00323C  5007               	movf	(___fladd@a+2)^(0+1280),w,c
  4428   00323E  2203               	addwfc	(___fladd@b+2)^(0+1280),f,c
  4429   003240  5008               	movf	(___fladd@a+3)^(0+1280),w,c
  4430   003242  2204               	addwfc	(___fladd@b+3)^(0+1280),f,c
  4431   003244  A004               	btfss	(___fladd@b+3)^(0+1280),0,c
  4432   003246  EF27  F019         	goto	i2u192_41
  4433   00324A  EF29  F019         	goto	i2u192_40
  4434   00324E                     i2u192_41:
  4435   00324E  EFD5  F019         	goto	i2l2284
  4436   003252                     i2u192_40:
  4437   003252  A010               	btfss	___fladd@grs^(0+1280),0,c
  4438   003254  EF2E  F019         	goto	i2u193_41
  4439   003258  EF30  F019         	goto	i2u193_40
  4440   00325C                     i2u193_41:
  4441   00325C  EF36  F019         	goto	i2l2238
  4442   003260                     i2u193_40:
  4443   003260  90D8               	bcf	status,0,c
  4444   003262  3010               	rrcf	___fladd@grs^(0+1280),w,c
  4445   003264  0901               	iorlw	1
  4446   003266  6E10               	movwf	___fladd@grs^(0+1280),c
  4447   003268  EF38  F019         	goto	i2l2240
  4448   00326C                     i2l2238:
  4449   00326C  90D8               	bcf	status,0,c
  4450   00326E  3210               	rrcf	___fladd@grs^(0+1280),f,c
  4451   003270                     i2l2240:
  4452   003270  A001               	btfss	___fladd@b^(0+1280),0,c
  4453   003272  EF3D  F019         	goto	i2u194_41
  4454   003276  EF3F  F019         	goto	i2u194_40
  4455   00327A                     i2u194_41:
  4456   00327A  EF40  F019         	goto	i2l2244
  4457   00327E                     i2u194_40:
  4458   00327E  8E10               	bsf	___fladd@grs^(0+1280),7,c
  4459   003280                     i2l2244:
  4460   003280  3404               	rlcf	(___fladd@b+3)^(0+1280),w,c
  4461   003282  3204               	rrcf	(___fladd@b+3)^(0+1280),f,c
  4462   003284  3203               	rrcf	(___fladd@b+2)^(0+1280),f,c
  4463   003286  3202               	rrcf	(___fladd@b+1)^(0+1280),f,c
  4464   003288  3201               	rrcf	___fladd@b^(0+1280),f,c
  4465   00328A  2A0F               	incf	___fladd@bexp^(0+1280),f,c
  4466   00328C  EFD5  F019         	goto	i2l2284
  4467   003290                     i2l2248:
  4468   003290  5005               	movf	___fladd@a^(0+1280),w,c
  4469   003292  5C01               	subwf	___fladd@b^(0+1280),w,c
  4470   003294  5006               	movf	(___fladd@a+1)^(0+1280),w,c
  4471   003296  5802               	subwfb	(___fladd@b+1)^(0+1280),w,c
  4472   003298  5007               	movf	(___fladd@a+2)^(0+1280),w,c
  4473   00329A  5803               	subwfb	(___fladd@b+2)^(0+1280),w,c
  4474   00329C  5004               	movf	(___fladd@b+3)^(0+1280),w,c
  4475   00329E  0A80               	xorlw	128
  4476   0032A0  6E09               	movwf	??___fladd^(0+1280),c
  4477   0032A2  5008               	movf	(___fladd@a+3)^(0+1280),w,c
  4478   0032A4  0A80               	xorlw	128
  4479   0032A6  5809               	subwfb	??___fladd^(0+1280),w,c
  4480   0032A8  B0D8               	btfsc	status,0,c
  4481   0032AA  EF59  F019         	goto	i2u195_41
  4482   0032AE  EF5B  F019         	goto	i2u195_40
  4483   0032B2                     i2u195_41:
  4484   0032B2  EF86  F019         	goto	i2l2258
  4485   0032B6                     i2u195_40:
  4486   0032B6  5001               	movf	___fladd@b^(0+1280),w,c
  4487   0032B8  5C05               	subwf	___fladd@a^(0+1280),w,c
  4488   0032BA  6E09               	movwf	??___fladd^(0+1280),c
  4489   0032BC  5002               	movf	(___fladd@b+1)^(0+1280),w,c
  4490   0032BE  5806               	subwfb	(___fladd@a+1)^(0+1280),w,c
  4491   0032C0  6E0A               	movwf	(??___fladd+1)^(0+1280),c
  4492   0032C2  5003               	movf	(___fladd@b+2)^(0+1280),w,c
  4493   0032C4  5807               	subwfb	(___fladd@a+2)^(0+1280),w,c
  4494   0032C6  6E0B               	movwf	(??___fladd+2)^(0+1280),c
  4495   0032C8  5004               	movf	(___fladd@b+3)^(0+1280),w,c
  4496   0032CA  5808               	subwfb	(___fladd@a+3)^(0+1280),w,c
  4497   0032CC  6E0C               	movwf	(??___fladd+3)^(0+1280),c
  4498   0032CE  0EFF               	movlw	255
  4499   0032D0  2409               	addwf	??___fladd^(0+1280),w,c
  4500   0032D2  6E01               	movwf	___fladd@b^(0+1280),c
  4501   0032D4  0EFF               	movlw	255
  4502   0032D6  200A               	addwfc	(??___fladd+1)^(0+1280),w,c
  4503   0032D8  6E02               	movwf	(___fladd@b+1)^(0+1280),c
  4504   0032DA  0EFF               	movlw	255
  4505   0032DC  200B               	addwfc	(??___fladd+2)^(0+1280),w,c
  4506   0032DE  6E03               	movwf	(___fladd@b+2)^(0+1280),c
  4507   0032E0  0EFF               	movlw	255
  4508   0032E2  200C               	addwfc	(??___fladd+3)^(0+1280),w,c
  4509   0032E4  6E04               	movwf	(___fladd@b+3)^(0+1280),c
  4510   0032E6  0E80               	movlw	128
  4511   0032E8  1A0D               	xorwf	___fladd@signs^(0+1280),f,c
  4512   0032EA  6C10               	negf	___fladd@grs^(0+1280),c
  4513   0032EC  5010               	movf	___fladd@grs^(0+1280),w,c
  4514   0032EE  A4D8               	btfss	status,2,c
  4515   0032F0  EF7C  F019         	goto	i2u196_41
  4516   0032F4  EF7E  F019         	goto	i2u196_40
  4517   0032F8                     i2u196_41:
  4518   0032F8  EF8E  F019         	goto	i2l619
  4519   0032FC                     i2u196_40:
  4520   0032FC  0E01               	movlw	1
  4521   0032FE  2601               	addwf	___fladd@b^(0+1280),f,c
  4522   003300  0E00               	movlw	0
  4523   003302  2202               	addwfc	(___fladd@b+1)^(0+1280),f,c
  4524   003304  2203               	addwfc	(___fladd@b+2)^(0+1280),f,c
  4525   003306  2204               	addwfc	(___fladd@b+3)^(0+1280),f,c
  4526   003308  EF8E  F019         	goto	i2l619
  4527   00330C                     i2l2258:
  4528   00330C  5005               	movf	___fladd@a^(0+1280),w,c
  4529   00330E  5E01               	subwf	___fladd@b^(0+1280),f,c
  4530   003310  5006               	movf	(___fladd@a+1)^(0+1280),w,c
  4531   003312  5A02               	subwfb	(___fladd@b+1)^(0+1280),f,c
  4532   003314  5007               	movf	(___fladd@a+2)^(0+1280),w,c
  4533   003316  5A03               	subwfb	(___fladd@b+2)^(0+1280),f,c
  4534   003318  5008               	movf	(___fladd@a+3)^(0+1280),w,c
  4535   00331A  5A04               	subwfb	(___fladd@b+3)^(0+1280),f,c
  4536   00331C                     i2l619:
  4537   00331C  5001               	movf	___fladd@b^(0+1280),w,c
  4538   00331E  1002               	iorwf	(___fladd@b+1)^(0+1280),w,c
  4539   003320  1003               	iorwf	(___fladd@b+2)^(0+1280),w,c
  4540   003322  1004               	iorwf	(___fladd@b+3)^(0+1280),w,c
  4541   003324  A4D8               	btfss	status,2,c
  4542   003326  EF97  F019         	goto	i2u197_41
  4543   00332A  EF99  F019         	goto	i2u197_40
  4544   00332E                     i2u197_41:
  4545   00332E  EFCE  F019         	goto	i2l2282
  4546   003332                     i2u197_40:
  4547   003332  5010               	movf	___fladd@grs^(0+1280),w,c
  4548   003334  A4D8               	btfss	status,2,c
  4549   003336  EF9F  F019         	goto	i2u198_41
  4550   00333A  EFA1  F019         	goto	i2u198_40
  4551   00333E                     i2u198_41:
  4552   00333E  EFCE  F019         	goto	i2l2282
  4553   003342                     i2u198_40:
  4554   003342  0E00               	movlw	0
  4555   003344  6E01               	movwf	?___fladd^(0+1280),c
  4556   003346  0E00               	movlw	0
  4557   003348  6E02               	movwf	(?___fladd+1)^(0+1280),c
  4558   00334A  0E00               	movlw	0
  4559   00334C  6E03               	movwf	(?___fladd+2)^(0+1280),c
  4560   00334E  0E00               	movlw	0
  4561   003350  6E04               	movwf	(?___fladd+3)^(0+1280),c
  4562   003352  EF69  F01A         	goto	i2l611
  4563   003356                     i2l2266:
  4564   003356  90D8               	bcf	status,0,c
  4565   003358  3601               	rlcf	___fladd@b^(0+1280),f,c
  4566   00335A  3602               	rlcf	(___fladd@b+1)^(0+1280),f,c
  4567   00335C  3603               	rlcf	(___fladd@b+2)^(0+1280),f,c
  4568   00335E  3604               	rlcf	(___fladd@b+3)^(0+1280),f,c
  4569   003360  AE10               	btfss	___fladd@grs^(0+1280),7,c
  4570   003362  EFB5  F019         	goto	i2u199_41
  4571   003366  EFB7  F019         	goto	i2u199_40
  4572   00336A                     i2u199_41:
  4573   00336A  EFB8  F019         	goto	i2l2272
  4574   00336E                     i2u199_40:
  4575   00336E  8001               	bsf	___fladd@b^(0+1280),0,c
  4576   003370                     i2l2272:
  4577   003370  A010               	btfss	___fladd@grs^(0+1280),0,c
  4578   003372  EFBD  F019         	goto	i2u200_41
  4579   003376  EFBF  F019         	goto	i2u200_40
  4580   00337A                     i2u200_41:
  4581   00337A  EFC3  F019         	goto	i2l2276
  4582   00337E                     i2u200_40:
  4583   00337E  80D8               	bsf	status,0,c
  4584   003380  3610               	rlcf	___fladd@grs^(0+1280),f,c
  4585   003382  EFC5  F019         	goto	i2l2278
  4586   003386                     i2l2276:
  4587   003386  90D8               	bcf	status,0,c
  4588   003388  3610               	rlcf	___fladd@grs^(0+1280),f,c
  4589   00338A                     i2l2278:
  4590   00338A  500F               	movf	___fladd@bexp^(0+1280),w,c
  4591   00338C  B4D8               	btfsc	status,2,c
  4592   00338E  EFCB  F019         	goto	i2u201_41
  4593   003392  EFCD  F019         	goto	i2u201_40
  4594   003396                     i2u201_41:
  4595   003396  EFCE  F019         	goto	i2l2282
  4596   00339A                     i2u201_40:
  4597   00339A  060F               	decf	___fladd@bexp^(0+1280),f,c
  4598   00339C                     i2l2282:
  4599   00339C  AE03               	btfss	(___fladd@b+2)^(0+1280),7,c
  4600   00339E  EFD3  F019         	goto	i2u202_41
  4601   0033A2  EFD5  F019         	goto	i2u202_40
  4602   0033A6                     i2u202_41:
  4603   0033A6  EFAB  F019         	goto	i2l2266
  4604   0033AA                     i2u202_40:
  4605   0033AA                     i2l2284:
  4606   0033AA  0E00               	movlw	0
  4607   0033AC  6E0E               	movwf	___fladd@aexp^(0+1280),c
  4608   0033AE  AE10               	btfss	___fladd@grs^(0+1280),7,c
  4609   0033B0  EFDC  F019         	goto	i2u203_41
  4610   0033B4  EFDE  F019         	goto	i2u203_40
  4611   0033B8                     i2u203_41:
  4612   0033B8  EFF6  F019         	goto	i2l628
  4613   0033BC                     i2u203_40:
  4614   0033BC  C510  F509         	movff	___fladd@grs,??___fladd
  4615   0033C0  0E7F               	movlw	127
  4616   0033C2  1609               	andwf	??___fladd^(0+1280),f,c
  4617   0033C4  B4D8               	btfsc	status,2,c
  4618   0033C6  EFE7  F019         	goto	i2u204_41
  4619   0033CA  EFE9  F019         	goto	i2u204_40
  4620   0033CE                     i2u204_41:
  4621   0033CE  EFED  F019         	goto	i2l629
  4622   0033D2                     i2u204_40:
  4623   0033D2                     i2l2290:
  4624   0033D2  0E01               	movlw	1
  4625   0033D4  6E0E               	movwf	___fladd@aexp^(0+1280),c
  4626   0033D6  EFF6  F019         	goto	i2l628
  4627   0033DA                     i2l629:
  4628   0033DA  A001               	btfss	___fladd@b^(0+1280),0,c
  4629   0033DC  EFF2  F019         	goto	i2u205_41
  4630   0033E0  EFF4  F019         	goto	i2u205_40
  4631   0033E4                     i2u205_41:
  4632   0033E4  EFF6  F019         	goto	i2l628
  4633   0033E8                     i2u205_40:
  4634   0033E8  EFE9  F019         	goto	i2l2290
  4635   0033EC                     i2l628:
  4636   0033EC  500E               	movf	___fladd@aexp^(0+1280),w,c
  4637   0033EE  B4D8               	btfsc	status,2,c
  4638   0033F0  EFFC  F019         	goto	i2u206_41
  4639   0033F4  EFFE  F019         	goto	i2u206_40
  4640   0033F8                     i2u206_41:
  4641   0033F8  EF29  F01A         	goto	i2l2302
  4642   0033FC                     i2u206_40:
  4643   0033FC  0E01               	movlw	1
  4644   0033FE  2601               	addwf	___fladd@b^(0+1280),f,c
  4645   003400  0E00               	movlw	0
  4646   003402  2202               	addwfc	(___fladd@b+1)^(0+1280),f,c
  4647   003404  2203               	addwfc	(___fladd@b+2)^(0+1280),f,c
  4648   003406  2204               	addwfc	(___fladd@b+3)^(0+1280),f,c
  4649   003408  A004               	btfss	(___fladd@b+3)^(0+1280),0,c
  4650   00340A  EF09  F01A         	goto	i2u207_41
  4651   00340E  EF0B  F01A         	goto	i2u207_40
  4652   003412                     i2u207_41:
  4653   003412  EF29  F01A         	goto	i2l2302
  4654   003416                     i2u207_40:
  4655   003416  C501  F509         	movff	___fladd@b,??___fladd
  4656   00341A  C502  F50A         	movff	___fladd@b+1,??___fladd+1
  4657   00341E  C503  F50B         	movff	___fladd@b+2,??___fladd+2
  4658   003422  C504  F50C         	movff	___fladd@b+3,??___fladd+3
  4659   003426  340C               	rlcf	(??___fladd+3)^(0+1280),w,c
  4660   003428  320C               	rrcf	(??___fladd+3)^(0+1280),f,c
  4661   00342A  320B               	rrcf	(??___fladd+2)^(0+1280),f,c
  4662   00342C  320A               	rrcf	(??___fladd+1)^(0+1280),f,c
  4663   00342E  3209               	rrcf	??___fladd^(0+1280),f,c
  4664   003430  C509  F501         	movff	??___fladd,___fladd@b
  4665   003434  C50A  F502         	movff	??___fladd+1,___fladd@b+1
  4666   003438  C50B  F503         	movff	??___fladd+2,___fladd@b+2
  4667   00343C  C50C  F504         	movff	??___fladd+3,___fladd@b+3
  4668   003440  280F               	incf	___fladd@bexp^(0+1280),w,c
  4669   003442  B4D8               	btfsc	status,2,c
  4670   003444  EF26  F01A         	goto	i2u208_41
  4671   003448  EF28  F01A         	goto	i2u208_40
  4672   00344C                     i2u208_41:
  4673   00344C  EF29  F01A         	goto	i2l2302
  4674   003450                     i2u208_40:
  4675   003450  2A0F               	incf	___fladd@bexp^(0+1280),f,c
  4676   003452                     i2l2302:
  4677   003452  280F               	incf	___fladd@bexp^(0+1280),w,c
  4678   003454  B4D8               	btfsc	status,2,c
  4679   003456  EF2F  F01A         	goto	i2u209_41
  4680   00345A  EF31  F01A         	goto	i2u209_40
  4681   00345E                     i2u209_41:
  4682   00345E  EF39  F01A         	goto	i2l2306
  4683   003462                     i2u209_40:
  4684   003462  500F               	movf	___fladd@bexp^(0+1280),w,c
  4685   003464  A4D8               	btfss	status,2,c
  4686   003466  EF37  F01A         	goto	i2u210_41
  4687   00346A  EF39  F01A         	goto	i2u210_40
  4688   00346E                     i2u210_41:
  4689   00346E  EF4B  F01A         	goto	i2l2310
  4690   003472                     i2u210_40:
  4691   003472                     i2l2306:
  4692   003472  0E00               	movlw	0
  4693   003474  6E01               	movwf	___fladd@b^(0+1280),c
  4694   003476  0E00               	movlw	0
  4695   003478  6E02               	movwf	(___fladd@b+1)^(0+1280),c
  4696   00347A  0E00               	movlw	0
  4697   00347C  6E03               	movwf	(___fladd@b+2)^(0+1280),c
  4698   00347E  0E00               	movlw	0
  4699   003480  6E04               	movwf	(___fladd@b+3)^(0+1280),c
  4700   003482  500F               	movf	___fladd@bexp^(0+1280),w,c
  4701   003484  A4D8               	btfss	status,2,c
  4702   003486  EF47  F01A         	goto	i2u211_41
  4703   00348A  EF49  F01A         	goto	i2u211_40
  4704   00348E                     i2u211_41:
  4705   00348E  EF4B  F01A         	goto	i2l2310
  4706   003492                     i2u211_40:
  4707   003492  0E00               	movlw	0
  4708   003494  6E0D               	movwf	___fladd@signs^(0+1280),c
  4709   003496                     i2l2310:
  4710   003496  A00F               	btfss	___fladd@bexp^(0+1280),0,c
  4711   003498  EF50  F01A         	goto	i2u212_41
  4712   00349C  EF52  F01A         	goto	i2u212_40
  4713   0034A0                     i2u212_41:
  4714   0034A0  EF55  F01A         	goto	i2l2314
  4715   0034A4                     i2u212_40:
  4716   0034A4  8E03               	bsf	(___fladd@b+2)^(0+1280),7,c
  4717   0034A6  EF56  F01A         	goto	i2l2316
  4718   0034AA                     i2l2314:
  4719   0034AA  9E03               	bcf	(___fladd@b+2)^(0+1280),7,c
  4720   0034AC                     i2l2316:
  4721   0034AC  90D8               	bcf	status,0,c
  4722   0034AE  300F               	rrcf	___fladd@bexp^(0+1280),w,c
  4723   0034B0  6E04               	movwf	(___fladd@b+3)^(0+1280),c
  4724   0034B2  AE0D               	btfss	___fladd@signs^(0+1280),7,c
  4725   0034B4  EF5E  F01A         	goto	i2u213_41
  4726   0034B8  EF60  F01A         	goto	i2u213_40
  4727   0034BC                     i2u213_41:
  4728   0034BC  EF61  F01A         	goto	i2l2322
  4729   0034C0                     i2u213_40:
  4730   0034C0  8E04               	bsf	(___fladd@b+3)^(0+1280),7,c
  4731   0034C2                     i2l2322:
  4732   0034C2  C501  F501         	movff	___fladd@b,?___fladd
  4733   0034C6  C502  F502         	movff	___fladd@b+1,?___fladd+1
  4734   0034CA  C503  F503         	movff	___fladd@b+2,?___fladd+2
  4735   0034CE  C504  F504         	movff	___fladd@b+3,?___fladd+3
  4736   0034D2                     i2l611:
  4737   0034D2  0012               	return		;funcret
  4738   0034D4                     __end_of___fladd:
  4739                           	callstack 0
  4740                           
  4741 ;; *************** function ___flneg *****************
  4742 ;; Defined at:
  4743 ;;		line 15 in file "C:\Program Files\Microchip\xc8\v2.40\pic\sources\c99\common\flneg.c"
  4744 ;; Parameters:    Size  Location     Type
  4745 ;;  f1              4    0[COMRAM] unsigned char 
  4746 ;; Auto vars:     Size  Location     Type
  4747 ;;		None
  4748 ;; Return value:  Size  Location     Type
  4749 ;;                  4    0[COMRAM] unsigned char 
  4750 ;; Registers used:
  4751 ;;		wreg, status,2, status,0
  4752 ;; Tracked objects:
  4753 ;;		On entry : 0/0
  4754 ;;		On exit  : 0/0
  4755 ;;		Unchanged: 0/0
  4756 ;; Data sizes:     COMRAM   BANK5   BANK6   BANK7   BANK8   BANK9  BANK10  BANK11  BANK12  BANK13  BANK14  BANK15  BANK1
      +6  BANK17  BANK18  BANK19  BANK20  BANK21  BANK22  BANK23  BANK24  BANK25  BANK26  BANK27  BANK28  BANK29  BANK30  BANK3
      +1  BANK32  BANK33  BANK34  BANK35  BANK36
  4757 ;;      Params:         4       0       0       0       0       0       0       0       0       0       0       0       
      +0       0       0       0       0       0       0       0       0       0       0       0       0       0       0       
      +0       0       0       0       0       0
  4758 ;;      Locals:         0       0       0       0       0       0       0       0       0       0       0       0       
      +0       0       0       0       0       0       0       0       0       0       0       0       0       0       0       
      +0       0       0       0       0       0
  4759 ;;      Temps:          0       0       0       0       0       0       0       0       0       0       0       0       
      +0       0       0       0       0       0       0       0       0       0       0       0       0       0       0       
      +0       0       0       0       0       0
  4760 ;;      Totals:         4       0       0       0       0       0       0       0       0       0       0       0       
      +0       0       0       0       0       0       0       0       0       0       0       0       0       0       0       
      +0       0       0       0       0       0
  4761 ;;Total ram usage:        4 bytes
  4762 ;; Hardware stack levels used: 1
  4763 ;; This function calls:
  4764 ;;		Nothing
  4765 ;; This function is called by:
  4766 ;;		_efgtoa
  4767 ;; This function uses a non-reentrant model
  4768 ;;
  4769                           
  4770                           	psect	text18
  4771   004B14                     __ptext18:
  4772                           	callstack 0
  4773   004B14                     ___flneg:
  4774                           	callstack 121
  4775   004B14  5001               	movf	___flneg@f1^(0+1280),w,c
  4776   004B16  1002               	iorwf	(___flneg@f1+1)^(0+1280),w,c
  4777   004B18  1003               	iorwf	(___flneg@f1+2)^(0+1280),w,c
  4778   004B1A  1004               	iorwf	(___flneg@f1+3)^(0+1280),w,c
  4779   004B1C  B4D8               	btfsc	status,2,c
  4780   004B1E  EF93  F025         	goto	i2u265_41
  4781   004B22  EF95  F025         	goto	i2u265_40
  4782   004B26                     i2u265_41:
  4783   004B26  EF9D  F025         	goto	i2l2650
  4784   004B2A                     i2u265_40:
  4785   004B2A  0E00               	movlw	0
  4786   004B2C  1A01               	xorwf	___flneg@f1^(0+1280),f,c
  4787   004B2E  0E00               	movlw	0
  4788   004B30  1A02               	xorwf	(___flneg@f1+1)^(0+1280),f,c
  4789   004B32  0E00               	movlw	0
  4790   004B34  1A03               	xorwf	(___flneg@f1+2)^(0+1280),f,c
  4791   004B36  0E80               	movlw	128
  4792   004B38  1A04               	xorwf	(___flneg@f1+3)^(0+1280),f,c
  4793   004B3A                     i2l2650:
  4794   004B3A  C501  F501         	movff	___flneg@f1,?___flneg
  4795   004B3E  C502  F502         	movff	___flneg@f1+1,?___flneg+1
  4796   004B42  C503  F503         	movff	___flneg@f1+2,?___flneg+2
  4797   004B46  C504  F504         	movff	___flneg@f1+3,?___flneg+3
  4798   004B4A  0012               	return		;funcret
  4799   004B4C                     __end_of___flneg:
  4800                           	callstack 0
  4801                           
  4802 ;; *************** function ___flmul *****************
  4803 ;; Defined at:
  4804 ;;		line 8 in file "C:\Program Files\Microchip\xc8\v2.40\pic\sources\c99\common\sprcmul.c"
  4805 ;; Parameters:    Size  Location     Type
  4806 ;;  b               4   14[COMRAM] unsigned char 
  4807 ;;  a               4   18[COMRAM] unsigned char 
  4808 ;; Auto vars:     Size  Location     Type
  4809 ;;  prod            4   33[COMRAM] struct .
  4810 ;;  grs             4   27[COMRAM] unsigned long 
  4811 ;;  temp            2   37[COMRAM] struct .
  4812 ;;  bexp            1   32[COMRAM] unsigned char 
  4813 ;;  aexp            1   31[COMRAM] unsigned char 
  4814 ;;  sign            1   26[COMRAM] unsigned char 
  4815 ;; Return value:  Size  Location     Type
  4816 ;;                  4   14[COMRAM] unsigned char 
  4817 ;; Registers used:
  4818 ;;		wreg, status,2, status,0, prodl, prodh
  4819 ;; Tracked objects:
  4820 ;;		On entry : 0/0
  4821 ;;		On exit  : 0/0
  4822 ;;		Unchanged: 0/0
  4823 ;; Data sizes:     COMRAM   BANK5   BANK6   BANK7   BANK8   BANK9  BANK10  BANK11  BANK12  BANK13  BANK14  BANK15  BANK1
      +6  BANK17  BANK18  BANK19  BANK20  BANK21  BANK22  BANK23  BANK24  BANK25  BANK26  BANK27  BANK28  BANK29  BANK30  BANK3
      +1  BANK32  BANK33  BANK34  BANK35  BANK36
  4824 ;;      Params:         8       0       0       0       0       0       0       0       0       0       0       0       
      +0       0       0       0       0       0       0       0       0       0       0       0       0       0       0       
      +0       0       0       0       0       0
  4825 ;;      Locals:        13       0       0       0       0       0       0       0       0       0       0       0       
      +0       0       0       0       0       0       0       0       0       0       0       0       0       0       0       
      +0       0       0       0       0       0
  4826 ;;      Temps:          4       0       0       0       0       0       0       0       0       0       0       0       
      +0       0       0       0       0       0       0       0       0       0       0       0       0       0       0       
      +0       0       0       0       0       0
  4827 ;;      Totals:        25       0       0       0       0       0       0       0       0       0       0       0       
      +0       0       0       0       0       0       0       0       0       0       0       0       0       0       0       
      +0       0       0       0       0       0
  4828 ;;Total ram usage:       25 bytes
  4829 ;; Hardware stack levels used: 1
  4830 ;; This function calls:
  4831 ;;		Nothing
  4832 ;; This function is called by:
  4833 ;;		_ADC_ISR
  4834 ;;		_efgtoa
  4835 ;; This function uses a non-reentrant model
  4836 ;;
  4837                           
  4838                           	psect	text19
  4839   0034D4                     __ptext19:
  4840                           	callstack 0
  4841   0034D4                     ___flmul:
  4842                           	callstack 121
  4843   0034D4  5012               	movf	(___flmul@b+3)^(0+1280),w,c
  4844   0034D6  0B80               	andlw	128
  4845   0034D8  6E1B               	movwf	___flmul@sign^(0+1280),c
  4846   0034DA  5012               	movf	(___flmul@b+3)^(0+1280),w,c
  4847   0034DC  2412               	addwf	(___flmul@b+3)^(0+1280),w,c
  4848   0034DE  6E21               	movwf	___flmul@bexp^(0+1280),c
  4849   0034E0  AE11               	btfss	(___flmul@b+2)^(0+1280),7,c
  4850   0034E2  EF75  F01A         	goto	i2u238_41
  4851   0034E6  EF77  F01A         	goto	i2u238_40
  4852   0034EA                     i2u238_41:
  4853   0034EA  EF78  F01A         	goto	i2l2478
  4854   0034EE                     i2u238_40:
  4855   0034EE  8021               	bsf	___flmul@bexp^(0+1280),0,c
  4856   0034F0                     i2l2478:
  4857   0034F0  5021               	movf	___flmul@bexp^(0+1280),w,c
  4858   0034F2  B4D8               	btfsc	status,2,c
  4859   0034F4  EF7E  F01A         	goto	i2u239_41
  4860   0034F8  EF80  F01A         	goto	i2u239_40
  4861   0034FC                     i2u239_41:
  4862   0034FC  EF93  F01A         	goto	i2l2486
  4863   003500                     i2u239_40:
  4864   003500  2821               	incf	___flmul@bexp^(0+1280),w,c
  4865   003502  A4D8               	btfss	status,2,c
  4866   003504  EF86  F01A         	goto	i2u240_41
  4867   003508  EF88  F01A         	goto	i2u240_40
  4868   00350C                     i2u240_41:
  4869   00350C  EF90  F01A         	goto	i2l2484
  4870   003510                     i2u240_40:
  4871   003510  0E00               	movlw	0
  4872   003512  6E0F               	movwf	___flmul@b^(0+1280),c
  4873   003514  0E00               	movlw	0
  4874   003516  6E10               	movwf	(___flmul@b+1)^(0+1280),c
  4875   003518  0E00               	movlw	0
  4876   00351A  6E11               	movwf	(___flmul@b+2)^(0+1280),c
  4877   00351C  0E00               	movlw	0
  4878   00351E  6E12               	movwf	(___flmul@b+3)^(0+1280),c
  4879   003520                     i2l2484:
  4880   003520  8E11               	bsf	(___flmul@b+2)^(0+1280),7,c
  4881   003522  EF9B  F01A         	goto	i2l2488
  4882   003526                     i2l2486:
  4883   003526  0E00               	movlw	0
  4884   003528  6E0F               	movwf	___flmul@b^(0+1280),c
  4885   00352A  0E00               	movlw	0
  4886   00352C  6E10               	movwf	(___flmul@b+1)^(0+1280),c
  4887   00352E  0E00               	movlw	0
  4888   003530  6E11               	movwf	(___flmul@b+2)^(0+1280),c
  4889   003532  0E00               	movlw	0
  4890   003534  6E12               	movwf	(___flmul@b+3)^(0+1280),c
  4891   003536                     i2l2488:
  4892   003536  5016               	movf	(___flmul@a+3)^(0+1280),w,c
  4893   003538  0B80               	andlw	128
  4894   00353A  1A1B               	xorwf	___flmul@sign^(0+1280),f,c
  4895   00353C  5016               	movf	(___flmul@a+3)^(0+1280),w,c
  4896   00353E  2416               	addwf	(___flmul@a+3)^(0+1280),w,c
  4897   003540  6E20               	movwf	___flmul@aexp^(0+1280),c
  4898   003542  AE15               	btfss	(___flmul@a+2)^(0+1280),7,c
  4899   003544  EFA6  F01A         	goto	i2u241_41
  4900   003548  EFA8  F01A         	goto	i2u241_40
  4901   00354C                     i2u241_41:
  4902   00354C  EFA9  F01A         	goto	i2l2496
  4903   003550                     i2u241_40:
  4904   003550  8020               	bsf	___flmul@aexp^(0+1280),0,c
  4905   003552                     i2l2496:
  4906   003552  5020               	movf	___flmul@aexp^(0+1280),w,c
  4907   003554  B4D8               	btfsc	status,2,c
  4908   003556  EFAF  F01A         	goto	i2u242_41
  4909   00355A  EFB1  F01A         	goto	i2u242_40
  4910   00355E                     i2u242_41:
  4911   00355E  EFC4  F01A         	goto	i2l2504
  4912   003562                     i2u242_40:
  4913   003562  2820               	incf	___flmul@aexp^(0+1280),w,c
  4914   003564  A4D8               	btfss	status,2,c
  4915   003566  EFB7  F01A         	goto	i2u243_41
  4916   00356A  EFB9  F01A         	goto	i2u243_40
  4917   00356E                     i2u243_41:
  4918   00356E  EFC1  F01A         	goto	i2l2502
  4919   003572                     i2u243_40:
  4920   003572  0E00               	movlw	0
  4921   003574  6E13               	movwf	___flmul@a^(0+1280),c
  4922   003576  0E00               	movlw	0
  4923   003578  6E14               	movwf	(___flmul@a+1)^(0+1280),c
  4924   00357A  0E00               	movlw	0
  4925   00357C  6E15               	movwf	(___flmul@a+2)^(0+1280),c
  4926   00357E  0E00               	movlw	0
  4927   003580  6E16               	movwf	(___flmul@a+3)^(0+1280),c
  4928   003582                     i2l2502:
  4929   003582  8E15               	bsf	(___flmul@a+2)^(0+1280),7,c
  4930   003584  EFCC  F01A         	goto	i2l688
  4931   003588                     i2l2504:
  4932   003588  0E00               	movlw	0
  4933   00358A  6E13               	movwf	___flmul@a^(0+1280),c
  4934   00358C  0E00               	movlw	0
  4935   00358E  6E14               	movwf	(___flmul@a+1)^(0+1280),c
  4936   003590  0E00               	movlw	0
  4937   003592  6E15               	movwf	(___flmul@a+2)^(0+1280),c
  4938   003594  0E00               	movlw	0
  4939   003596  6E16               	movwf	(___flmul@a+3)^(0+1280),c
  4940   003598                     i2l688:
  4941   003598  5020               	movf	___flmul@aexp^(0+1280),w,c
  4942   00359A  B4D8               	btfsc	status,2,c
  4943   00359C  EFD2  F01A         	goto	i2u244_41
  4944   0035A0  EFD4  F01A         	goto	i2u244_40
  4945   0035A4                     i2u244_41:
  4946   0035A4  EFDC  F01A         	goto	i2l2508
  4947   0035A8                     i2u244_40:
  4948   0035A8  5021               	movf	___flmul@bexp^(0+1280),w,c
  4949   0035AA  A4D8               	btfss	status,2,c
  4950   0035AC  EFDA  F01A         	goto	i2u245_41
  4951   0035B0  EFDC  F01A         	goto	i2u245_40
  4952   0035B4                     i2u245_41:
  4953   0035B4  EFE6  F01A         	goto	i2l2512
  4954   0035B8                     i2u245_40:
  4955   0035B8                     i2l2508:
  4956   0035B8  0E00               	movlw	0
  4957   0035BA  6E0F               	movwf	?___flmul^(0+1280),c
  4958   0035BC  0E00               	movlw	0
  4959   0035BE  6E10               	movwf	(?___flmul+1)^(0+1280),c
  4960   0035C0  0E00               	movlw	0
  4961   0035C2  6E11               	movwf	(?___flmul+2)^(0+1280),c
  4962   0035C4  0E00               	movlw	0
  4963   0035C6  6E12               	movwf	(?___flmul+3)^(0+1280),c
  4964   0035C8  EF7E  F01C         	goto	i2l692
  4965   0035CC                     i2l2512:
  4966   0035CC  5015               	movf	(___flmul@a+2)^(0+1280),w,c
  4967   0035CE  020F               	mulwf	___flmul@b^(0+1280),c
  4968   0035D0  C4F3 F526          	movff	prodl,___flmul@temp
  4969   0035D4  C4F4 F527          	movff	prodh,___flmul@temp+1
  4970   0035D8  5026               	movf	___flmul@temp^(0+1280),w,c
  4971   0035DA  6E1C               	movwf	___flmul@grs^(0+1280),c
  4972   0035DC  6A1D               	clrf	(___flmul@grs+1)^(0+1280),c
  4973   0035DE  6A1E               	clrf	(___flmul@grs+2)^(0+1280),c
  4974   0035E0  6A1F               	clrf	(___flmul@grs+3)^(0+1280),c
  4975   0035E2  5027               	movf	(___flmul@temp+1)^(0+1280),w,c
  4976   0035E4  6E22               	movwf	___flmul@prod^(0+1280),c
  4977   0035E6  6A23               	clrf	(___flmul@prod+1)^(0+1280),c
  4978   0035E8  6A24               	clrf	(___flmul@prod+2)^(0+1280),c
  4979   0035EA  6A25               	clrf	(___flmul@prod+3)^(0+1280),c
  4980   0035EC  5014               	movf	(___flmul@a+1)^(0+1280),w,c
  4981   0035EE  0210               	mulwf	(___flmul@b+1)^(0+1280),c
  4982   0035F0  C4F3 F526          	movff	prodl,___flmul@temp
  4983   0035F4  C4F4 F527          	movff	prodh,___flmul@temp+1
  4984   0035F8  5026               	movf	___flmul@temp^(0+1280),w,c
  4985   0035FA  261C               	addwf	___flmul@grs^(0+1280),f,c
  4986   0035FC  0E00               	movlw	0
  4987   0035FE  221D               	addwfc	(___flmul@grs+1)^(0+1280),f,c
  4988   003600  221E               	addwfc	(___flmul@grs+2)^(0+1280),f,c
  4989   003602  221F               	addwfc	(___flmul@grs+3)^(0+1280),f,c
  4990   003604  5027               	movf	(___flmul@temp+1)^(0+1280),w,c
  4991   003606  2622               	addwf	___flmul@prod^(0+1280),f,c
  4992   003608  0E00               	movlw	0
  4993   00360A  2223               	addwfc	(___flmul@prod+1)^(0+1280),f,c
  4994   00360C  2224               	addwfc	(___flmul@prod+2)^(0+1280),f,c
  4995   00360E  2225               	addwfc	(___flmul@prod+3)^(0+1280),f,c
  4996   003610  5013               	movf	___flmul@a^(0+1280),w,c
  4997   003612  0211               	mulwf	(___flmul@b+2)^(0+1280),c
  4998   003614  C4F3 F526          	movff	prodl,___flmul@temp
  4999   003618  C4F4 F527          	movff	prodh,___flmul@temp+1
  5000   00361C  5026               	movf	___flmul@temp^(0+1280),w,c
  5001   00361E  261C               	addwf	___flmul@grs^(0+1280),f,c
  5002   003620  0E00               	movlw	0
  5003   003622  221D               	addwfc	(___flmul@grs+1)^(0+1280),f,c
  5004   003624  221E               	addwfc	(___flmul@grs+2)^(0+1280),f,c
  5005   003626  221F               	addwfc	(___flmul@grs+3)^(0+1280),f,c
  5006   003628  5027               	movf	(___flmul@temp+1)^(0+1280),w,c
  5007   00362A  2622               	addwf	___flmul@prod^(0+1280),f,c
  5008   00362C  0E00               	movlw	0
  5009   00362E  2223               	addwfc	(___flmul@prod+1)^(0+1280),f,c
  5010   003630  2224               	addwfc	(___flmul@prod+2)^(0+1280),f,c
  5011   003632  2225               	addwfc	(___flmul@prod+3)^(0+1280),f,c
  5012   003634  C51E  F51F         	movff	___flmul@grs+2,___flmul@grs+3
  5013   003638  C51D  F51E         	movff	___flmul@grs+1,___flmul@grs+2
  5014   00363C  C51C  F51D         	movff	___flmul@grs,___flmul@grs+1
  5015   003640  6A1C               	clrf	___flmul@grs^(0+1280),c
  5016   003642  5013               	movf	___flmul@a^(0+1280),w,c
  5017   003644  0210               	mulwf	(___flmul@b+1)^(0+1280),c
  5018   003646  C4F3 F526          	movff	prodl,___flmul@temp
  5019   00364A  C4F4 F527          	movff	prodh,___flmul@temp+1
  5020   00364E  5026               	movf	___flmul@temp^(0+1280),w,c
  5021   003650  261C               	addwf	___flmul@grs^(0+1280),f,c
  5022   003652  5027               	movf	(___flmul@temp+1)^(0+1280),w,c
  5023   003654  221D               	addwfc	(___flmul@grs+1)^(0+1280),f,c
  5024   003656  0E00               	movlw	0
  5025   003658  221E               	addwfc	(___flmul@grs+2)^(0+1280),f,c
  5026   00365A  0E00               	movlw	0
  5027   00365C  221F               	addwfc	(___flmul@grs+3)^(0+1280),f,c
  5028   00365E  5014               	movf	(___flmul@a+1)^(0+1280),w,c
  5029   003660  020F               	mulwf	___flmul@b^(0+1280),c
  5030   003662  C4F3 F526          	movff	prodl,___flmul@temp
  5031   003666  C4F4 F527          	movff	prodh,___flmul@temp+1
  5032   00366A  5026               	movf	___flmul@temp^(0+1280),w,c
  5033   00366C  261C               	addwf	___flmul@grs^(0+1280),f,c
  5034   00366E  5027               	movf	(___flmul@temp+1)^(0+1280),w,c
  5035   003670  221D               	addwfc	(___flmul@grs+1)^(0+1280),f,c
  5036   003672  0E00               	movlw	0
  5037   003674  221E               	addwfc	(___flmul@grs+2)^(0+1280),f,c
  5038   003676  0E00               	movlw	0
  5039   003678  221F               	addwfc	(___flmul@grs+3)^(0+1280),f,c
  5040   00367A  C51E  F51F         	movff	___flmul@grs+2,___flmul@grs+3
  5041   00367E  C51D  F51E         	movff	___flmul@grs+1,___flmul@grs+2
  5042   003682  C51C  F51D         	movff	___flmul@grs,___flmul@grs+1
  5043   003686  6A1C               	clrf	___flmul@grs^(0+1280),c
  5044   003688  5013               	movf	___flmul@a^(0+1280),w,c
  5045   00368A  020F               	mulwf	___flmul@b^(0+1280),c
  5046   00368C  C4F3 F526          	movff	prodl,___flmul@temp
  5047   003690  C4F4 F527          	movff	prodh,___flmul@temp+1
  5048   003694  5026               	movf	___flmul@temp^(0+1280),w,c
  5049   003696  261C               	addwf	___flmul@grs^(0+1280),f,c
  5050   003698  5027               	movf	(___flmul@temp+1)^(0+1280),w,c
  5051   00369A  221D               	addwfc	(___flmul@grs+1)^(0+1280),f,c
  5052   00369C  0E00               	movlw	0
  5053   00369E  221E               	addwfc	(___flmul@grs+2)^(0+1280),f,c
  5054   0036A0  0E00               	movlw	0
  5055   0036A2  221F               	addwfc	(___flmul@grs+3)^(0+1280),f,c
  5056   0036A4  5015               	movf	(___flmul@a+2)^(0+1280),w,c
  5057   0036A6  0210               	mulwf	(___flmul@b+1)^(0+1280),c
  5058   0036A8  C4F3 F526          	movff	prodl,___flmul@temp
  5059   0036AC  C4F4 F527          	movff	prodh,___flmul@temp+1
  5060   0036B0  5026               	movf	___flmul@temp^(0+1280),w,c
  5061   0036B2  2622               	addwf	___flmul@prod^(0+1280),f,c
  5062   0036B4  5027               	movf	(___flmul@temp+1)^(0+1280),w,c
  5063   0036B6  2223               	addwfc	(___flmul@prod+1)^(0+1280),f,c
  5064   0036B8  0E00               	movlw	0
  5065   0036BA  2224               	addwfc	(___flmul@prod+2)^(0+1280),f,c
  5066   0036BC  0E00               	movlw	0
  5067   0036BE  2225               	addwfc	(___flmul@prod+3)^(0+1280),f,c
  5068   0036C0  5014               	movf	(___flmul@a+1)^(0+1280),w,c
  5069   0036C2  0211               	mulwf	(___flmul@b+2)^(0+1280),c
  5070   0036C4  C4F3 F526          	movff	prodl,___flmul@temp
  5071   0036C8  C4F4 F527          	movff	prodh,___flmul@temp+1
  5072   0036CC  5026               	movf	___flmul@temp^(0+1280),w,c
  5073   0036CE  2622               	addwf	___flmul@prod^(0+1280),f,c
  5074   0036D0  5027               	movf	(___flmul@temp+1)^(0+1280),w,c
  5075   0036D2  2223               	addwfc	(___flmul@prod+1)^(0+1280),f,c
  5076   0036D4  0E00               	movlw	0
  5077   0036D6  2224               	addwfc	(___flmul@prod+2)^(0+1280),f,c
  5078   0036D8  0E00               	movlw	0
  5079   0036DA  2225               	addwfc	(___flmul@prod+3)^(0+1280),f,c
  5080   0036DC  5015               	movf	(___flmul@a+2)^(0+1280),w,c
  5081   0036DE  0211               	mulwf	(___flmul@b+2)^(0+1280),c
  5082   0036E0  C4F3 F526          	movff	prodl,___flmul@temp
  5083   0036E4  C4F4 F527          	movff	prodh,___flmul@temp+1
  5084   0036E8  5026               	movf	___flmul@temp^(0+1280),w,c
  5085   0036EA  6E17               	movwf	??___flmul^(0+1280),c
  5086   0036EC  5027               	movf	(___flmul@temp+1)^(0+1280),w,c
  5087   0036EE  6E18               	movwf	(??___flmul+1)^(0+1280),c
  5088   0036F0  6A19               	clrf	(??___flmul+2)^(0+1280),c
  5089   0036F2  6A1A               	clrf	(??___flmul+3)^(0+1280),c
  5090   0036F4  C519  F51A         	movff	??___flmul+2,??___flmul+3
  5091   0036F8  C518  F519         	movff	??___flmul+1,??___flmul+2
  5092   0036FC  C517  F518         	movff	??___flmul,??___flmul+1
  5093   003700  6A17               	clrf	??___flmul^(0+1280),c
  5094   003702  5017               	movf	??___flmul^(0+1280),w,c
  5095   003704  2622               	addwf	___flmul@prod^(0+1280),f,c
  5096   003706  5018               	movf	(??___flmul+1)^(0+1280),w,c
  5097   003708  2223               	addwfc	(___flmul@prod+1)^(0+1280),f,c
  5098   00370A  5019               	movf	(??___flmul+2)^(0+1280),w,c
  5099   00370C  2224               	addwfc	(___flmul@prod+2)^(0+1280),f,c
  5100   00370E  501A               	movf	(??___flmul+3)^(0+1280),w,c
  5101   003710  2225               	addwfc	(___flmul@prod+3)^(0+1280),f,c
  5102   003712  C51C  F517         	movff	___flmul@grs,??___flmul
  5103   003716  C51D  F518         	movff	___flmul@grs+1,??___flmul+1
  5104   00371A  C51E  F519         	movff	___flmul@grs+2,??___flmul+2
  5105   00371E  C51F  F51A         	movff	___flmul@grs+3,??___flmul+3
  5106   003722  0E19               	movlw	25
  5107   003724  EF99  F01B         	goto	i2u246_40
  5108   003728                     i2u246_45:
  5109   003728  90D8               	bcf	status,0,c
  5110   00372A  321A               	rrcf	(??___flmul+3)^(0+1280),f,c
  5111   00372C  3219               	rrcf	(??___flmul+2)^(0+1280),f,c
  5112   00372E  3218               	rrcf	(??___flmul+1)^(0+1280),f,c
  5113   003730  3217               	rrcf	??___flmul^(0+1280),f,c
  5114   003732                     i2u246_40:
  5115   003732  2EE8               	decfsz	wreg,f,c
  5116   003734  EF94  F01B         	goto	i2u246_45
  5117   003738  5017               	movf	??___flmul^(0+1280),w,c
  5118   00373A  2622               	addwf	___flmul@prod^(0+1280),f,c
  5119   00373C  5018               	movf	(??___flmul+1)^(0+1280),w,c
  5120   00373E  2223               	addwfc	(___flmul@prod+1)^(0+1280),f,c
  5121   003740  5019               	movf	(??___flmul+2)^(0+1280),w,c
  5122   003742  2224               	addwfc	(___flmul@prod+2)^(0+1280),f,c
  5123   003744  501A               	movf	(??___flmul+3)^(0+1280),w,c
  5124   003746  2225               	addwfc	(___flmul@prod+3)^(0+1280),f,c
  5125   003748  C51E  F51F         	movff	___flmul@grs+2,___flmul@grs+3
  5126   00374C  C51D  F51E         	movff	___flmul@grs+1,___flmul@grs+2
  5127   003750  C51C  F51D         	movff	___flmul@grs,___flmul@grs+1
  5128   003754  6A1C               	clrf	___flmul@grs^(0+1280),c
  5129   003756  5020               	movf	___flmul@aexp^(0+1280),w,c
  5130   003758  C521  F517         	movff	___flmul@bexp,??___flmul
  5131   00375C  6A18               	clrf	(??___flmul+1)^(0+1280),c
  5132   00375E  2617               	addwf	??___flmul^(0+1280),f,c
  5133   003760  0E00               	movlw	0
  5134   003762  2218               	addwfc	(??___flmul+1)^(0+1280),f,c
  5135   003764  0E82               	movlw	130
  5136   003766  2417               	addwf	??___flmul^(0+1280),w,c
  5137   003768  6E26               	movwf	___flmul@temp^(0+1280),c
  5138   00376A  0EFF               	movlw	255
  5139   00376C  2018               	addwfc	(??___flmul+1)^(0+1280),w,c
  5140   00376E  6E27               	movwf	(___flmul@temp+1)^(0+1280),c
  5141   003770  EFCF  F01B         	goto	i2l2560
  5142   003774                     i2l2554:
  5143   003774  90D8               	bcf	status,0,c
  5144   003776  3622               	rlcf	___flmul@prod^(0+1280),f,c
  5145   003778  3623               	rlcf	(___flmul@prod+1)^(0+1280),f,c
  5146   00377A  3624               	rlcf	(___flmul@prod+2)^(0+1280),f,c
  5147   00377C  3625               	rlcf	(___flmul@prod+3)^(0+1280),f,c
  5148   00377E  AE1F               	btfss	(___flmul@grs+3)^(0+1280),7,c
  5149   003780  EFC4  F01B         	goto	i2u247_41
  5150   003784  EFC6  F01B         	goto	i2u247_40
  5151   003788                     i2u247_41:
  5152   003788  EFC7  F01B         	goto	i2l695
  5153   00378C                     i2u247_40:
  5154   00378C  8022               	bsf	___flmul@prod^(0+1280),0,c
  5155   00378E                     i2l695:
  5156   00378E  90D8               	bcf	status,0,c
  5157   003790  361C               	rlcf	___flmul@grs^(0+1280),f,c
  5158   003792  361D               	rlcf	(___flmul@grs+1)^(0+1280),f,c
  5159   003794  361E               	rlcf	(___flmul@grs+2)^(0+1280),f,c
  5160   003796  361F               	rlcf	(___flmul@grs+3)^(0+1280),f,c
  5161   003798  0626               	decf	___flmul@temp^(0+1280),f,c
  5162   00379A  A0D8               	btfss	status,0,c
  5163   00379C  0627               	decf	(___flmul@temp+1)^(0+1280),f,c
  5164   00379E                     i2l2560:
  5165   00379E  AE24               	btfss	(___flmul@prod+2)^(0+1280),7,c
  5166   0037A0  EFD4  F01B         	goto	i2u248_41
  5167   0037A4  EFD6  F01B         	goto	i2u248_40
  5168   0037A8                     i2u248_41:
  5169   0037A8  EFBA  F01B         	goto	i2l2554
  5170   0037AC                     i2u248_40:
  5171   0037AC  0E00               	movlw	0
  5172   0037AE  6E20               	movwf	___flmul@aexp^(0+1280),c
  5173   0037B0  AE1F               	btfss	(___flmul@grs+3)^(0+1280),7,c
  5174   0037B2  EFDD  F01B         	goto	i2u249_41
  5175   0037B6  EFDF  F01B         	goto	i2u249_40
  5176   0037BA                     i2u249_41:
  5177   0037BA  EF03  F01C         	goto	i2l697
  5178   0037BE                     i2u249_40:
  5179   0037BE  0EFF               	movlw	255
  5180   0037C0  141C               	andwf	___flmul@grs^(0+1280),w,c
  5181   0037C2  6E17               	movwf	??___flmul^(0+1280),c
  5182   0037C4  0EFF               	movlw	255
  5183   0037C6  141D               	andwf	(___flmul@grs+1)^(0+1280),w,c
  5184   0037C8  6E18               	movwf	(??___flmul+1)^(0+1280),c
  5185   0037CA  0EFF               	movlw	255
  5186   0037CC  141E               	andwf	(___flmul@grs+2)^(0+1280),w,c
  5187   0037CE  6E19               	movwf	(??___flmul+2)^(0+1280),c
  5188   0037D0  0E7F               	movlw	127
  5189   0037D2  141F               	andwf	(___flmul@grs+3)^(0+1280),w,c
  5190   0037D4  6E1A               	movwf	(??___flmul+3)^(0+1280),c
  5191   0037D6  5017               	movf	??___flmul^(0+1280),w,c
  5192   0037D8  1018               	iorwf	(??___flmul+1)^(0+1280),w,c
  5193   0037DA  1019               	iorwf	(??___flmul+2)^(0+1280),w,c
  5194   0037DC  101A               	iorwf	(??___flmul+3)^(0+1280),w,c
  5195   0037DE  B4D8               	btfsc	status,2,c
  5196   0037E0  EFF4  F01B         	goto	i2u250_41
  5197   0037E4  EFF6  F01B         	goto	i2u250_40
  5198   0037E8                     i2u250_41:
  5199   0037E8  EFFA  F01B         	goto	i2l698
  5200   0037EC                     i2u250_40:
  5201   0037EC                     i2l2568:
  5202   0037EC  0E01               	movlw	1
  5203   0037EE  6E20               	movwf	___flmul@aexp^(0+1280),c
  5204   0037F0  EF03  F01C         	goto	i2l697
  5205   0037F4                     i2l698:
  5206   0037F4  A022               	btfss	___flmul@prod^(0+1280),0,c
  5207   0037F6  EFFF  F01B         	goto	i2u251_41
  5208   0037FA  EF01  F01C         	goto	i2u251_40
  5209   0037FE                     i2u251_41:
  5210   0037FE  EF03  F01C         	goto	i2l697
  5211   003802                     i2u251_40:
  5212   003802  EFF6  F01B         	goto	i2l2568
  5213   003806                     i2l697:
  5214   003806  5020               	movf	___flmul@aexp^(0+1280),w,c
  5215   003808  B4D8               	btfsc	status,2,c
  5216   00380A  EF09  F01C         	goto	i2u252_41
  5217   00380E  EF0B  F01C         	goto	i2u252_40
  5218   003812                     i2u252_41:
  5219   003812  EF2F  F01C         	goto	i2l2580
  5220   003816                     i2u252_40:
  5221   003816  0E01               	movlw	1
  5222   003818  2622               	addwf	___flmul@prod^(0+1280),f,c
  5223   00381A  0E00               	movlw	0
  5224   00381C  2223               	addwfc	(___flmul@prod+1)^(0+1280),f,c
  5225   00381E  2224               	addwfc	(___flmul@prod+2)^(0+1280),f,c
  5226   003820  2225               	addwfc	(___flmul@prod+3)^(0+1280),f,c
  5227   003822  A025               	btfss	(___flmul@prod+3)^(0+1280),0,c
  5228   003824  EF16  F01C         	goto	i2u253_41
  5229   003828  EF18  F01C         	goto	i2u253_40
  5230   00382C                     i2u253_41:
  5231   00382C  EF2F  F01C         	goto	i2l2580
  5232   003830                     i2u253_40:
  5233   003830  C522  F517         	movff	___flmul@prod,??___flmul
  5234   003834  C523  F518         	movff	___flmul@prod+1,??___flmul+1
  5235   003838  C524  F519         	movff	___flmul@prod+2,??___flmul+2
  5236   00383C  C525  F51A         	movff	___flmul@prod+3,??___flmul+3
  5237   003840  341A               	rlcf	(??___flmul+3)^(0+1280),w,c
  5238   003842  321A               	rrcf	(??___flmul+3)^(0+1280),f,c
  5239   003844  3219               	rrcf	(??___flmul+2)^(0+1280),f,c
  5240   003846  3218               	rrcf	(??___flmul+1)^(0+1280),f,c
  5241   003848  3217               	rrcf	??___flmul^(0+1280),f,c
  5242   00384A  C517  F522         	movff	??___flmul,___flmul@prod
  5243   00384E  C518  F523         	movff	??___flmul+1,___flmul@prod+1
  5244   003852  C519  F524         	movff	??___flmul+2,___flmul@prod+2
  5245   003856  C51A  F525         	movff	??___flmul+3,___flmul@prod+3
  5246   00385A  4A26               	infsnz	___flmul@temp^(0+1280),f,c
  5247   00385C  2A27               	incf	(___flmul@temp+1)^(0+1280),f,c
  5248   00385E                     i2l2580:
  5249   00385E  BE27               	btfsc	(___flmul@temp+1)^(0+1280),7,c
  5250   003860  EF3A  F01C         	goto	i2u254_41
  5251   003864  5027               	movf	(___flmul@temp+1)^(0+1280),w,c
  5252   003866  E108               	bnz	i2u254_40
  5253   003868  2826               	incf	___flmul@temp^(0+1280),w,c
  5254   00386A  A0D8               	btfss	status,0,c
  5255   00386C  EF3A  F01C         	goto	i2u254_41
  5256   003870  EF3C  F01C         	goto	i2u254_40
  5257   003874                     i2u254_41:
  5258   003874  EF46  F01C         	goto	i2l2584
  5259   003878                     i2u254_40:
  5260   003878  0E00               	movlw	0
  5261   00387A  6E22               	movwf	___flmul@prod^(0+1280),c
  5262   00387C  0E00               	movlw	0
  5263   00387E  6E23               	movwf	(___flmul@prod+1)^(0+1280),c
  5264   003880  0E80               	movlw	128
  5265   003882  6E24               	movwf	(___flmul@prod+2)^(0+1280),c
  5266   003884  0E7F               	movlw	127
  5267   003886  6E25               	movwf	(___flmul@prod+3)^(0+1280),c
  5268   003888  EF74  F01C         	goto	i2l2596
  5269   00388C                     i2l2584:
  5270   00388C  BE27               	btfsc	(___flmul@temp+1)^(0+1280),7,c
  5271   00388E  EF53  F01C         	goto	i2u255_40
  5272   003892  5027               	movf	(___flmul@temp+1)^(0+1280),w,c
  5273   003894  E106               	bnz	i2u255_41
  5274   003896  0426               	decf	___flmul@temp^(0+1280),w,c
  5275   003898  B0D8               	btfsc	status,0,c
  5276   00389A  EF51  F01C         	goto	i2u255_41
  5277   00389E  EF53  F01C         	goto	i2u255_40
  5278   0038A2                     i2u255_41:
  5279   0038A2  EF5F  F01C         	goto	i2l705
  5280   0038A6                     i2u255_40:
  5281   0038A6  0E00               	movlw	0
  5282   0038A8  6E22               	movwf	___flmul@prod^(0+1280),c
  5283   0038AA  0E00               	movlw	0
  5284   0038AC  6E23               	movwf	(___flmul@prod+1)^(0+1280),c
  5285   0038AE  0E00               	movlw	0
  5286   0038B0  6E24               	movwf	(___flmul@prod+2)^(0+1280),c
  5287   0038B2  0E00               	movlw	0
  5288   0038B4  6E25               	movwf	(___flmul@prod+3)^(0+1280),c
  5289   0038B6  0E00               	movlw	0
  5290   0038B8  6E1B               	movwf	___flmul@sign^(0+1280),c
  5291   0038BA  EF74  F01C         	goto	i2l2596
  5292   0038BE                     i2l705:
  5293   0038BE  C526  F521         	movff	___flmul@temp,___flmul@bexp
  5294   0038C2  0EFF               	movlw	255
  5295   0038C4  1622               	andwf	___flmul@prod^(0+1280),f,c
  5296   0038C6  0EFF               	movlw	255
  5297   0038C8  1623               	andwf	(___flmul@prod+1)^(0+1280),f,c
  5298   0038CA  0E7F               	movlw	127
  5299   0038CC  1624               	andwf	(___flmul@prod+2)^(0+1280),f,c
  5300   0038CE  0E00               	movlw	0
  5301   0038D0  1625               	andwf	(___flmul@prod+3)^(0+1280),f,c
  5302   0038D2  A021               	btfss	___flmul@bexp^(0+1280),0,c
  5303   0038D4  EF6E  F01C         	goto	i2u256_41
  5304   0038D8  EF70  F01C         	goto	i2u256_40
  5305   0038DC                     i2u256_41:
  5306   0038DC  EF71  F01C         	goto	i2l2594
  5307   0038E0                     i2u256_40:
  5308   0038E0  8E24               	bsf	(___flmul@prod+2)^(0+1280),7,c
  5309   0038E2                     i2l2594:
  5310   0038E2  90D8               	bcf	status,0,c
  5311   0038E4  3021               	rrcf	___flmul@bexp^(0+1280),w,c
  5312   0038E6  6E25               	movwf	(___flmul@prod+3)^(0+1280),c
  5313   0038E8                     i2l2596:
  5314   0038E8  501B               	movf	___flmul@sign^(0+1280),w,c
  5315   0038EA  1225               	iorwf	(___flmul@prod+3)^(0+1280),f,c
  5316   0038EC  C522  F50F         	movff	___flmul@prod,?___flmul
  5317   0038F0  C523  F510         	movff	___flmul@prod+1,?___flmul+1
  5318   0038F4  C524  F511         	movff	___flmul@prod+2,?___flmul+2
  5319   0038F8  C525  F512         	movff	___flmul@prod+3,?___flmul+3
  5320   0038FC                     i2l692:
  5321   0038FC  0012               	return		;funcret
  5322   0038FE                     __end_of___flmul:
  5323                           	callstack 0
  5324                           
  5325 ;; *************** function ___flge *****************
  5326 ;; Defined at:
  5327 ;;		line 4 in file "C:\Program Files\Microchip\xc8\v2.40\pic\sources\c99\common\flge.c"
  5328 ;; Parameters:    Size  Location     Type
  5329 ;;  ff1             4   39[COMRAM] unsigned char 
  5330 ;;  ff2             4   43[COMRAM] unsigned char 
  5331 ;; Auto vars:     Size  Location     Type
  5332 ;;		None
  5333 ;; Return value:  Size  Location     Type
  5334 ;;		None               void
  5335 ;; Registers used:
  5336 ;;		wreg, status,2, status,0
  5337 ;; Tracked objects:
  5338 ;;		On entry : 0/0
  5339 ;;		On exit  : 0/0
  5340 ;;		Unchanged: 0/0
  5341 ;; Data sizes:     COMRAM   BANK5   BANK6   BANK7   BANK8   BANK9  BANK10  BANK11  BANK12  BANK13  BANK14  BANK15  BANK1
      +6  BANK17  BANK18  BANK19  BANK20  BANK21  BANK22  BANK23  BANK24  BANK25  BANK26  BANK27  BANK28  BANK29  BANK30  BANK3
      +1  BANK32  BANK33  BANK34  BANK35  BANK36
  5342 ;;      Params:         8       0       0       0       0       0       0       0       0       0       0       0       
      +0       0       0       0       0       0       0       0       0       0       0       0       0       0       0       
      +0       0       0       0       0       0
  5343 ;;      Locals:         0       0       0       0       0       0       0       0       0       0       0       0       
      +0       0       0       0       0       0       0       0       0       0       0       0       0       0       0       
      +0       0       0       0       0       0
  5344 ;;      Temps:          4       0       0       0       0       0       0       0       0       0       0       0       
      +0       0       0       0       0       0       0       0       0       0       0       0       0       0       0       
      +0       0       0       0       0       0
  5345 ;;      Totals:        12       0       0       0       0       0       0       0       0       0       0       0       
      +0       0       0       0       0       0       0       0       0       0       0       0       0       0       0       
      +0       0       0       0       0       0
  5346 ;;Total ram usage:       12 bytes
  5347 ;; Hardware stack levels used: 1
  5348 ;; This function calls:
  5349 ;;		Nothing
  5350 ;; This function is called by:
  5351 ;;		_efgtoa
  5352 ;; This function uses a non-reentrant model
  5353 ;;
  5354                           
  5355                           	psect	text20
  5356   004394                     __ptext20:
  5357                           	callstack 0
  5358   004394                     ___flge:
  5359                           	callstack 121
  5360   004394  0E00               	movlw	0
  5361   004396  1428               	andwf	___flge@ff1^(0+1280),w,c
  5362   004398  6E30               	movwf	??___flge^(0+1280),c
  5363   00439A  0E00               	movlw	0
  5364   00439C  1429               	andwf	(___flge@ff1+1)^(0+1280),w,c
  5365   00439E  6E31               	movwf	(??___flge+1)^(0+1280),c
  5366   0043A0  0E80               	movlw	128
  5367   0043A2  142A               	andwf	(___flge@ff1+2)^(0+1280),w,c
  5368   0043A4  6E32               	movwf	(??___flge+2)^(0+1280),c
  5369   0043A6  0E7F               	movlw	127
  5370   0043A8  142B               	andwf	(___flge@ff1+3)^(0+1280),w,c
  5371   0043AA  6E33               	movwf	(??___flge+3)^(0+1280),c
  5372   0043AC  5030               	movf	??___flge^(0+1280),w,c
  5373   0043AE  1031               	iorwf	(??___flge+1)^(0+1280),w,c
  5374   0043B0  1032               	iorwf	(??___flge+2)^(0+1280),w,c
  5375   0043B2  1033               	iorwf	(??___flge+3)^(0+1280),w,c
  5376   0043B4  A4D8               	btfss	status,2,c
  5377   0043B6  EFDF  F021         	goto	i2u260_41
  5378   0043BA  EFE1  F021         	goto	i2u260_40
  5379   0043BE                     i2u260_41:
  5380   0043BE  EFE9  F021         	goto	i2l2628
  5381   0043C2                     i2u260_40:
  5382   0043C2  0E00               	movlw	0
  5383   0043C4  6E28               	movwf	___flge@ff1^(0+1280),c
  5384   0043C6  0E00               	movlw	0
  5385   0043C8  6E29               	movwf	(___flge@ff1+1)^(0+1280),c
  5386   0043CA  0E00               	movlw	0
  5387   0043CC  6E2A               	movwf	(___flge@ff1+2)^(0+1280),c
  5388   0043CE  0E00               	movlw	0
  5389   0043D0  6E2B               	movwf	(___flge@ff1+3)^(0+1280),c
  5390   0043D2                     i2l2628:
  5391   0043D2  0E00               	movlw	0
  5392   0043D4  142C               	andwf	___flge@ff2^(0+1280),w,c
  5393   0043D6  6E30               	movwf	??___flge^(0+1280),c
  5394   0043D8  0E00               	movlw	0
  5395   0043DA  142D               	andwf	(___flge@ff2+1)^(0+1280),w,c
  5396   0043DC  6E31               	movwf	(??___flge+1)^(0+1280),c
  5397   0043DE  0E80               	movlw	128
  5398   0043E0  142E               	andwf	(___flge@ff2+2)^(0+1280),w,c
  5399   0043E2  6E32               	movwf	(??___flge+2)^(0+1280),c
  5400   0043E4  0E7F               	movlw	127
  5401   0043E6  142F               	andwf	(___flge@ff2+3)^(0+1280),w,c
  5402   0043E8  6E33               	movwf	(??___flge+3)^(0+1280),c
  5403   0043EA  5030               	movf	??___flge^(0+1280),w,c
  5404   0043EC  1031               	iorwf	(??___flge+1)^(0+1280),w,c
  5405   0043EE  1032               	iorwf	(??___flge+2)^(0+1280),w,c
  5406   0043F0  1033               	iorwf	(??___flge+3)^(0+1280),w,c
  5407   0043F2  A4D8               	btfss	status,2,c
  5408   0043F4  EFFE  F021         	goto	i2u261_41
  5409   0043F8  EF00  F022         	goto	i2u261_40
  5410   0043FC                     i2u261_41:
  5411   0043FC  EF08  F022         	goto	i2l2632
  5412   004400                     i2u261_40:
  5413   004400  0E00               	movlw	0
  5414   004402  6E2C               	movwf	___flge@ff2^(0+1280),c
  5415   004404  0E00               	movlw	0
  5416   004406  6E2D               	movwf	(___flge@ff2+1)^(0+1280),c
  5417   004408  0E00               	movlw	0
  5418   00440A  6E2E               	movwf	(___flge@ff2+2)^(0+1280),c
  5419   00440C  0E00               	movlw	0
  5420   00440E  6E2F               	movwf	(___flge@ff2+3)^(0+1280),c
  5421   004410                     i2l2632:
  5422   004410  AE2B               	btfss	(___flge@ff1+3)^(0+1280),7,c
  5423   004412  EF0D  F022         	goto	i2u262_41
  5424   004416  EF0F  F022         	goto	i2u262_40
  5425   00441A                     i2u262_41:
  5426   00441A  EF18  F022         	goto	i2l2636
  5427   00441E                     i2u262_40:
  5428   00441E  6C28               	negf	___flge@ff1^(0+1280),c
  5429   004420  1E29               	comf	(___flge@ff1+1)^(0+1280),f,c
  5430   004422  B0D8               	btfsc	status,0,c
  5431   004424  2A29               	incf	(___flge@ff1+1)^(0+1280),f,c
  5432   004426  1E2A               	comf	(___flge@ff1+2)^(0+1280),f,c
  5433   004428  B0D8               	btfsc	status,0,c
  5434   00442A  2A2A               	incf	(___flge@ff1+2)^(0+1280),f,c
  5435   00442C  0E80               	movlw	128
  5436   00442E  562B               	subfwb	(___flge@ff1+3)^(0+1280),f,c
  5437   004430                     i2l2636:
  5438   004430  AE2F               	btfss	(___flge@ff2+3)^(0+1280),7,c
  5439   004432  EF1D  F022         	goto	i2u263_41
  5440   004436  EF1F  F022         	goto	i2u263_40
  5441   00443A                     i2u263_41:
  5442   00443A  EF28  F022         	goto	i2l339
  5443   00443E                     i2u263_40:
  5444   00443E  6C2C               	negf	___flge@ff2^(0+1280),c
  5445   004440  1E2D               	comf	(___flge@ff2+1)^(0+1280),f,c
  5446   004442  B0D8               	btfsc	status,0,c
  5447   004444  2A2D               	incf	(___flge@ff2+1)^(0+1280),f,c
  5448   004446  1E2E               	comf	(___flge@ff2+2)^(0+1280),f,c
  5449   004448  B0D8               	btfsc	status,0,c
  5450   00444A  2A2E               	incf	(___flge@ff2+2)^(0+1280),f,c
  5451   00444C  0E80               	movlw	128
  5452   00444E  562F               	subfwb	(___flge@ff2+3)^(0+1280),f,c
  5453   004450                     i2l339:
  5454   004450  0E00               	movlw	0
  5455   004452  1A28               	xorwf	___flge@ff1^(0+1280),f,c
  5456   004454  0E00               	movlw	0
  5457   004456  1A29               	xorwf	(___flge@ff1+1)^(0+1280),f,c
  5458   004458  0E00               	movlw	0
  5459   00445A  1A2A               	xorwf	(___flge@ff1+2)^(0+1280),f,c
  5460   00445C  0E80               	movlw	128
  5461   00445E  1A2B               	xorwf	(___flge@ff1+3)^(0+1280),f,c
  5462   004460  0E00               	movlw	0
  5463   004462  1A2C               	xorwf	___flge@ff2^(0+1280),f,c
  5464   004464  0E00               	movlw	0
  5465   004466  1A2D               	xorwf	(___flge@ff2+1)^(0+1280),f,c
  5466   004468  0E00               	movlw	0
  5467   00446A  1A2E               	xorwf	(___flge@ff2+2)^(0+1280),f,c
  5468   00446C  0E80               	movlw	128
  5469   00446E  1A2F               	xorwf	(___flge@ff2+3)^(0+1280),f,c
  5470   004470  502C               	movf	___flge@ff2^(0+1280),w,c
  5471   004472  5C28               	subwf	___flge@ff1^(0+1280),w,c
  5472   004474  502D               	movf	(___flge@ff2+1)^(0+1280),w,c
  5473   004476  5829               	subwfb	(___flge@ff1+1)^(0+1280),w,c
  5474   004478  502E               	movf	(___flge@ff2+2)^(0+1280),w,c
  5475   00447A  582A               	subwfb	(___flge@ff1+2)^(0+1280),w,c
  5476   00447C  502F               	movf	(___flge@ff2+3)^(0+1280),w,c
  5477   00447E  582B               	subwfb	(___flge@ff1+3)^(0+1280),w,c
  5478   004480  B0D8               	btfsc	status,0,c
  5479   004482  EF45  F022         	goto	i2u264_41
  5480   004486  EF47  F022         	goto	i2u264_40
  5481   00448A                     i2u264_41:
  5482   00448A  EF4A  F022         	goto	i2l2642
  5483   00448E                     i2u264_40:
  5484   00448E  90D8               	bcf	status,0,c
  5485   004490  EF4B  F022         	goto	i2l344
  5486   004494                     i2l2642:
  5487   004494  80D8               	bsf	status,0,c
  5488   004496                     i2l344:
  5489   004496  0012               	return		;funcret
  5490   004498                     __end_of___flge:
  5491                           	callstack 0
  5492                           
  5493 ;; *************** function ___fleq *****************
  5494 ;; Defined at:
  5495 ;;		line 4 in file "C:\Program Files\Microchip\xc8\v2.40\pic\sources\c99\common\fleq.c"
  5496 ;; Parameters:    Size  Location     Type
  5497 ;;  ff1             4    0[COMRAM] unsigned char 
  5498 ;;  ff2             4    4[COMRAM] unsigned char 
  5499 ;; Auto vars:     Size  Location     Type
  5500 ;;		None
  5501 ;; Return value:  Size  Location     Type
  5502 ;;		None               void
  5503 ;; Registers used:
  5504 ;;		wreg, status,2, status,0
  5505 ;; Tracked objects:
  5506 ;;		On entry : 0/0
  5507 ;;		On exit  : 0/0
  5508 ;;		Unchanged: 0/0
  5509 ;; Data sizes:     COMRAM   BANK5   BANK6   BANK7   BANK8   BANK9  BANK10  BANK11  BANK12  BANK13  BANK14  BANK15  BANK1
      +6  BANK17  BANK18  BANK19  BANK20  BANK21  BANK22  BANK23  BANK24  BANK25  BANK26  BANK27  BANK28  BANK29  BANK30  BANK3
      +1  BANK32  BANK33  BANK34  BANK35  BANK36
  5510 ;;      Params:         8       0       0       0       0       0       0       0       0       0       0       0       
      +0       0       0       0       0       0       0       0       0       0       0       0       0       0       0       
      +0       0       0       0       0       0
  5511 ;;      Locals:         0       0       0       0       0       0       0       0       0       0       0       0       
      +0       0       0       0       0       0       0       0       0       0       0       0       0       0       0       
      +0       0       0       0       0       0
  5512 ;;      Temps:          4       0       0       0       0       0       0       0       0       0       0       0       
      +0       0       0       0       0       0       0       0       0       0       0       0       0       0       0       
      +0       0       0       0       0       0
  5513 ;;      Totals:        12       0       0       0       0       0       0       0       0       0       0       0       
      +0       0       0       0       0       0       0       0       0       0       0       0       0       0       0       
      +0       0       0       0       0       0
  5514 ;;Total ram usage:       12 bytes
  5515 ;; Hardware stack levels used: 1
  5516 ;; This function calls:
  5517 ;;		Nothing
  5518 ;; This function is called by:
  5519 ;;		_efgtoa
  5520 ;; This function uses a non-reentrant model
  5521 ;;
  5522                           
  5523                           	psect	text21
  5524   004746                     __ptext21:
  5525                           	callstack 0
  5526   004746                     ___fleq:
  5527                           	callstack 121
  5528   004746  0E00               	movlw	0
  5529   004748  1401               	andwf	___fleq@ff1^(0+1280),w,c
  5530   00474A  6E09               	movwf	??___fleq^(0+1280),c
  5531   00474C  0E00               	movlw	0
  5532   00474E  1402               	andwf	(___fleq@ff1+1)^(0+1280),w,c
  5533   004750  6E0A               	movwf	(??___fleq+1)^(0+1280),c
  5534   004752  0E80               	movlw	128
  5535   004754  1403               	andwf	(___fleq@ff1+2)^(0+1280),w,c
  5536   004756  6E0B               	movwf	(??___fleq+2)^(0+1280),c
  5537   004758  0E7F               	movlw	127
  5538   00475A  1404               	andwf	(___fleq@ff1+3)^(0+1280),w,c
  5539   00475C  6E0C               	movwf	(??___fleq+3)^(0+1280),c
  5540   00475E  5009               	movf	??___fleq^(0+1280),w,c
  5541   004760  100A               	iorwf	(??___fleq+1)^(0+1280),w,c
  5542   004762  100B               	iorwf	(??___fleq+2)^(0+1280),w,c
  5543   004764  100C               	iorwf	(??___fleq+3)^(0+1280),w,c
  5544   004766  A4D8               	btfss	status,2,c
  5545   004768  EFB8  F023         	goto	i2u257_41
  5546   00476C  EFBA  F023         	goto	i2u257_40
  5547   004770                     i2u257_41:
  5548   004770  EFC2  F023         	goto	i2l2612
  5549   004774                     i2u257_40:
  5550   004774  0E00               	movlw	0
  5551   004776  6E01               	movwf	___fleq@ff1^(0+1280),c
  5552   004778  0E00               	movlw	0
  5553   00477A  6E02               	movwf	(___fleq@ff1+1)^(0+1280),c
  5554   00477C  0E00               	movlw	0
  5555   00477E  6E03               	movwf	(___fleq@ff1+2)^(0+1280),c
  5556   004780  0E00               	movlw	0
  5557   004782  6E04               	movwf	(___fleq@ff1+3)^(0+1280),c
  5558   004784                     i2l2612:
  5559   004784  0E00               	movlw	0
  5560   004786  1405               	andwf	___fleq@ff2^(0+1280),w,c
  5561   004788  6E09               	movwf	??___fleq^(0+1280),c
  5562   00478A  0E00               	movlw	0
  5563   00478C  1406               	andwf	(___fleq@ff2+1)^(0+1280),w,c
  5564   00478E  6E0A               	movwf	(??___fleq+1)^(0+1280),c
  5565   004790  0E80               	movlw	128
  5566   004792  1407               	andwf	(___fleq@ff2+2)^(0+1280),w,c
  5567   004794  6E0B               	movwf	(??___fleq+2)^(0+1280),c
  5568   004796  0E7F               	movlw	127
  5569   004798  1408               	andwf	(___fleq@ff2+3)^(0+1280),w,c
  5570   00479A  6E0C               	movwf	(??___fleq+3)^(0+1280),c
  5571   00479C  5009               	movf	??___fleq^(0+1280),w,c
  5572   00479E  100A               	iorwf	(??___fleq+1)^(0+1280),w,c
  5573   0047A0  100B               	iorwf	(??___fleq+2)^(0+1280),w,c
  5574   0047A2  100C               	iorwf	(??___fleq+3)^(0+1280),w,c
  5575   0047A4  A4D8               	btfss	status,2,c
  5576   0047A6  EFD7  F023         	goto	i2u258_41
  5577   0047AA  EFD9  F023         	goto	i2u258_40
  5578   0047AE                     i2u258_41:
  5579   0047AE  EFE1  F023         	goto	i2l2616
  5580   0047B2                     i2u258_40:
  5581   0047B2  0E00               	movlw	0
  5582   0047B4  6E05               	movwf	___fleq@ff2^(0+1280),c
  5583   0047B6  0E00               	movlw	0
  5584   0047B8  6E06               	movwf	(___fleq@ff2+1)^(0+1280),c
  5585   0047BA  0E00               	movlw	0
  5586   0047BC  6E07               	movwf	(___fleq@ff2+2)^(0+1280),c
  5587   0047BE  0E00               	movlw	0
  5588   0047C0  6E08               	movwf	(___fleq@ff2+3)^(0+1280),c
  5589   0047C2                     i2l2616:
  5590   0047C2  5005               	movf	___fleq@ff2^(0+1280),w,c
  5591   0047C4  1801               	xorwf	___fleq@ff1^(0+1280),w,c
  5592   0047C6  E10F               	bnz	i2u259_40
  5593   0047C8  5006               	movf	(___fleq@ff2+1)^(0+1280),w,c
  5594   0047CA  1802               	xorwf	(___fleq@ff1+1)^(0+1280),w,c
  5595   0047CC  E10C               	bnz	i2u259_40
  5596   0047CE  5007               	movf	(___fleq@ff2+2)^(0+1280),w,c
  5597   0047D0  1803               	xorwf	(___fleq@ff1+2)^(0+1280),w,c
  5598   0047D2  E109               	bnz	i2u259_40
  5599   0047D4  5008               	movf	(___fleq@ff2+3)^(0+1280),w,c
  5600   0047D6  1804               	xorwf	(___fleq@ff1+3)^(0+1280),w,c
  5601   0047D8  B4D8               	btfsc	status,2,c
  5602   0047DA  EFF1  F023         	goto	i2u259_41
  5603   0047DE  EFF3  F023         	goto	i2u259_40
  5604   0047E2                     i2u259_41:
  5605   0047E2  EFF6  F023         	goto	i2l2620
  5606   0047E6                     i2u259_40:
  5607   0047E6  90D8               	bcf	status,0,c
  5608   0047E8  EFF7  F023         	goto	i2l333
  5609   0047EC                     i2l2620:
  5610   0047EC  80D8               	bsf	status,0,c
  5611   0047EE                     i2l333:
  5612   0047EE  0012               	return		;funcret
  5613   0047F0                     __end_of___fleq:
  5614                           	callstack 0
  5615                           
  5616 ;; *************** function ___fldiv *****************
  5617 ;; Defined at:
  5618 ;;		line 11 in file "C:\Program Files\Microchip\xc8\v2.40\pic\sources\c99\common\sprcdiv.c"
  5619 ;; Parameters:    Size  Location     Type
  5620 ;;  b               4    0[COMRAM] unsigned char 
  5621 ;;  a               4    4[COMRAM] unsigned char 
  5622 ;; Auto vars:     Size  Location     Type
  5623 ;;  grs             4   19[COMRAM] unsigned long 
  5624 ;;  rem             4   12[COMRAM] unsigned long 
  5625 ;;  new_exp         2   17[COMRAM] short 
  5626 ;;  aexp            1   24[COMRAM] unsigned char 
  5627 ;;  bexp            1   23[COMRAM] unsigned char 
  5628 ;;  sign            1   16[COMRAM] unsigned char 
  5629 ;; Return value:  Size  Location     Type
  5630 ;;                  4    0[COMRAM] unsigned char 
  5631 ;; Registers used:
  5632 ;;		wreg, status,2, status,0
  5633 ;; Tracked objects:
  5634 ;;		On entry : 0/0
  5635 ;;		On exit  : 0/0
  5636 ;;		Unchanged: 0/0
  5637 ;; Data sizes:     COMRAM   BANK5   BANK6   BANK7   BANK8   BANK9  BANK10  BANK11  BANK12  BANK13  BANK14  BANK15  BANK1
      +6  BANK17  BANK18  BANK19  BANK20  BANK21  BANK22  BANK23  BANK24  BANK25  BANK26  BANK27  BANK28  BANK29  BANK30  BANK3
      +1  BANK32  BANK33  BANK34  BANK35  BANK36
  5638 ;;      Params:         8       0       0       0       0       0       0       0       0       0       0       0       
      +0       0       0       0       0       0       0       0       0       0       0       0       0       0       0       
      +0       0       0       0       0       0
  5639 ;;      Locals:        13       0       0       0       0       0       0       0       0       0       0       0       
      +0       0       0       0       0       0       0       0       0       0       0       0       0       0       0       
      +0       0       0       0       0       0
  5640 ;;      Temps:          4       0       0       0       0       0       0       0       0       0       0       0       
      +0       0       0       0       0       0       0       0       0       0       0       0       0       0       0       
      +0       0       0       0       0       0
  5641 ;;      Totals:        25       0       0       0       0       0       0       0       0       0       0       0       
      +0       0       0       0       0       0       0       0       0       0       0       0       0       0       0       
      +0       0       0       0       0       0
  5642 ;;Total ram usage:       25 bytes
  5643 ;; Hardware stack levels used: 1
  5644 ;; This function calls:
  5645 ;;		Nothing
  5646 ;; This function is called by:
  5647 ;;		_efgtoa
  5648 ;; This function uses a non-reentrant model
  5649 ;;
  5650                           
  5651                           	psect	text22
  5652   0038FE                     __ptext22:
  5653                           	callstack 0
  5654   0038FE                     ___fldiv:
  5655                           	callstack 121
  5656   0038FE  5004               	movf	(___fldiv@b+3)^(0+1280),w,c
  5657   003900  0B80               	andlw	128
  5658   003902  6E11               	movwf	___fldiv@sign^(0+1280),c
  5659   003904  5004               	movf	(___fldiv@b+3)^(0+1280),w,c
  5660   003906  2404               	addwf	(___fldiv@b+3)^(0+1280),w,c
  5661   003908  6E18               	movwf	___fldiv@bexp^(0+1280),c
  5662   00390A  AE03               	btfss	(___fldiv@b+2)^(0+1280),7,c
  5663   00390C  EF8A  F01C         	goto	i2u215_41
  5664   003910  EF8C  F01C         	goto	i2u215_40
  5665   003914                     i2u215_41:
  5666   003914  EF8D  F01C         	goto	i2l2340
  5667   003918                     i2u215_40:
  5668   003918  8018               	bsf	___fldiv@bexp^(0+1280),0,c
  5669   00391A                     i2l2340:
  5670   00391A  5018               	movf	___fldiv@bexp^(0+1280),w,c
  5671   00391C  B4D8               	btfsc	status,2,c
  5672   00391E  EF93  F01C         	goto	i2u216_41
  5673   003922  EF95  F01C         	goto	i2u216_40
  5674   003926                     i2u216_41:
  5675   003926  EFAA  F01C         	goto	i2l2350
  5676   00392A                     i2u216_40:
  5677   00392A  2818               	incf	___fldiv@bexp^(0+1280),w,c
  5678   00392C  A4D8               	btfss	status,2,c
  5679   00392E  EF9B  F01C         	goto	i2u217_41
  5680   003932  EF9D  F01C         	goto	i2u217_40
  5681   003936                     i2u217_41:
  5682   003936  EFA5  F01C         	goto	i2l2346
  5683   00393A                     i2u217_40:
  5684   00393A  0E00               	movlw	0
  5685   00393C  6E01               	movwf	___fldiv@b^(0+1280),c
  5686   00393E  0E00               	movlw	0
  5687   003940  6E02               	movwf	(___fldiv@b+1)^(0+1280),c
  5688   003942  0E00               	movlw	0
  5689   003944  6E03               	movwf	(___fldiv@b+2)^(0+1280),c
  5690   003946  0E00               	movlw	0
  5691   003948  6E04               	movwf	(___fldiv@b+3)^(0+1280),c
  5692   00394A                     i2l2346:
  5693   00394A  8E03               	bsf	(___fldiv@b+2)^(0+1280),7,c
  5694   00394C  0E00               	movlw	0
  5695   00394E  6E04               	movwf	(___fldiv@b+3)^(0+1280),c
  5696   003950  EFB2  F01C         	goto	i2l2352
  5697   003954                     i2l2350:
  5698   003954  0E00               	movlw	0
  5699   003956  6E01               	movwf	___fldiv@b^(0+1280),c
  5700   003958  0E00               	movlw	0
  5701   00395A  6E02               	movwf	(___fldiv@b+1)^(0+1280),c
  5702   00395C  0E00               	movlw	0
  5703   00395E  6E03               	movwf	(___fldiv@b+2)^(0+1280),c
  5704   003960  0E00               	movlw	0
  5705   003962  6E04               	movwf	(___fldiv@b+3)^(0+1280),c
  5706   003964                     i2l2352:
  5707   003964  5008               	movf	(___fldiv@a+3)^(0+1280),w,c
  5708   003966  0B80               	andlw	128
  5709   003968  1A11               	xorwf	___fldiv@sign^(0+1280),f,c
  5710   00396A  5008               	movf	(___fldiv@a+3)^(0+1280),w,c
  5711   00396C  2408               	addwf	(___fldiv@a+3)^(0+1280),w,c
  5712   00396E  6E19               	movwf	___fldiv@aexp^(0+1280),c
  5713   003970  AE07               	btfss	(___fldiv@a+2)^(0+1280),7,c
  5714   003972  EFBD  F01C         	goto	i2u218_41
  5715   003976  EFBF  F01C         	goto	i2u218_40
  5716   00397A                     i2u218_41:
  5717   00397A  EFC0  F01C         	goto	i2l2360
  5718   00397E                     i2u218_40:
  5719   00397E  8019               	bsf	___fldiv@aexp^(0+1280),0,c
  5720   003980                     i2l2360:
  5721   003980  5019               	movf	___fldiv@aexp^(0+1280),w,c
  5722   003982  B4D8               	btfsc	status,2,c
  5723   003984  EFC6  F01C         	goto	i2u219_41
  5724   003988  EFC8  F01C         	goto	i2u219_40
  5725   00398C                     i2u219_41:
  5726   00398C  EFDD  F01C         	goto	i2l2370
  5727   003990                     i2u219_40:
  5728   003990  2819               	incf	___fldiv@aexp^(0+1280),w,c
  5729   003992  A4D8               	btfss	status,2,c
  5730   003994  EFCE  F01C         	goto	i2u220_41
  5731   003998  EFD0  F01C         	goto	i2u220_40
  5732   00399C                     i2u220_41:
  5733   00399C  EFD8  F01C         	goto	i2l2366
  5734   0039A0                     i2u220_40:
  5735   0039A0  0E00               	movlw	0
  5736   0039A2  6E05               	movwf	___fldiv@a^(0+1280),c
  5737   0039A4  0E00               	movlw	0
  5738   0039A6  6E06               	movwf	(___fldiv@a+1)^(0+1280),c
  5739   0039A8  0E00               	movlw	0
  5740   0039AA  6E07               	movwf	(___fldiv@a+2)^(0+1280),c
  5741   0039AC  0E00               	movlw	0
  5742   0039AE  6E08               	movwf	(___fldiv@a+3)^(0+1280),c
  5743   0039B0                     i2l2366:
  5744   0039B0  8E07               	bsf	(___fldiv@a+2)^(0+1280),7,c
  5745   0039B2  0E00               	movlw	0
  5746   0039B4  6E08               	movwf	(___fldiv@a+3)^(0+1280),c
  5747   0039B6  EFE5  F01C         	goto	i2l2372
  5748   0039BA                     i2l2370:
  5749   0039BA  0E00               	movlw	0
  5750   0039BC  6E05               	movwf	___fldiv@a^(0+1280),c
  5751   0039BE  0E00               	movlw	0
  5752   0039C0  6E06               	movwf	(___fldiv@a+1)^(0+1280),c
  5753   0039C2  0E00               	movlw	0
  5754   0039C4  6E07               	movwf	(___fldiv@a+2)^(0+1280),c
  5755   0039C6  0E00               	movlw	0
  5756   0039C8  6E08               	movwf	(___fldiv@a+3)^(0+1280),c
  5757   0039CA                     i2l2372:
  5758   0039CA  5005               	movf	___fldiv@a^(0+1280),w,c
  5759   0039CC  1006               	iorwf	(___fldiv@a+1)^(0+1280),w,c
  5760   0039CE  1007               	iorwf	(___fldiv@a+2)^(0+1280),w,c
  5761   0039D0  1008               	iorwf	(___fldiv@a+3)^(0+1280),w,c
  5762   0039D2  A4D8               	btfss	status,2,c
  5763   0039D4  EFEE  F01C         	goto	i2u221_41
  5764   0039D8  EFF0  F01C         	goto	i2u221_40
  5765   0039DC                     i2u221_41:
  5766   0039DC  EF08  F01D         	goto	i2l2384
  5767   0039E0                     i2u221_40:
  5768   0039E0  0E00               	movlw	0
  5769   0039E2  6E01               	movwf	___fldiv@b^(0+1280),c
  5770   0039E4  0E00               	movlw	0
  5771   0039E6  6E02               	movwf	(___fldiv@b+1)^(0+1280),c
  5772   0039E8  0E00               	movlw	0
  5773   0039EA  6E03               	movwf	(___fldiv@b+2)^(0+1280),c
  5774   0039EC  0E00               	movlw	0
  5775   0039EE  6E04               	movwf	(___fldiv@b+3)^(0+1280),c
  5776   0039F0  0E80               	movlw	128
  5777   0039F2  1203               	iorwf	(___fldiv@b+2)^(0+1280),f,c
  5778   0039F4  0E7F               	movlw	127
  5779   0039F6  1204               	iorwf	(___fldiv@b+3)^(0+1280),f,c
  5780   0039F8                     i2l2378:
  5781   0039F8  5011               	movf	___fldiv@sign^(0+1280),w,c
  5782   0039FA  1204               	iorwf	(___fldiv@b+3)^(0+1280),f,c
  5783   0039FC  C501  F501         	movff	___fldiv@b,?___fldiv
  5784   003A00  C502  F502         	movff	___fldiv@b+1,?___fldiv+1
  5785   003A04  C503  F503         	movff	___fldiv@b+2,?___fldiv+2
  5786   003A08  C504  F504         	movff	___fldiv@b+3,?___fldiv+3
  5787   003A0C  EF4B  F01E         	goto	i2l656
  5788   003A10                     i2l2384:
  5789   003A10  5018               	movf	___fldiv@bexp^(0+1280),w,c
  5790   003A12  A4D8               	btfss	status,2,c
  5791   003A14  EF0E  F01D         	goto	i2u222_41
  5792   003A18  EF10  F01D         	goto	i2u222_40
  5793   003A1C                     i2u222_41:
  5794   003A1C  EF1A  F01D         	goto	i2l2392
  5795   003A20                     i2u222_40:
  5796   003A20  0E00               	movlw	0
  5797   003A22  6E01               	movwf	?___fldiv^(0+1280),c
  5798   003A24  0E00               	movlw	0
  5799   003A26  6E02               	movwf	(?___fldiv+1)^(0+1280),c
  5800   003A28  0E00               	movlw	0
  5801   003A2A  6E03               	movwf	(?___fldiv+2)^(0+1280),c
  5802   003A2C  0E00               	movlw	0
  5803   003A2E  6E04               	movwf	(?___fldiv+3)^(0+1280),c
  5804   003A30  EF4B  F01E         	goto	i2l656
  5805   003A34                     i2l2392:
  5806   003A34  5019               	movf	___fldiv@aexp^(0+1280),w,c
  5807   003A36  C518  F509         	movff	___fldiv@bexp,??___fldiv
  5808   003A3A  6A0A               	clrf	(??___fldiv+1)^(0+1280),c
  5809   003A3C  5E09               	subwf	??___fldiv^(0+1280),f,c
  5810   003A3E  0E00               	movlw	0
  5811   003A40  5A0A               	subwfb	(??___fldiv+1)^(0+1280),f,c
  5812   003A42  0E7F               	movlw	127
  5813   003A44  2409               	addwf	??___fldiv^(0+1280),w,c
  5814   003A46  6E12               	movwf	___fldiv@new_exp^(0+1280),c
  5815   003A48  0E00               	movlw	0
  5816   003A4A  200A               	addwfc	(??___fldiv+1)^(0+1280),w,c
  5817   003A4C  6E13               	movwf	(___fldiv@new_exp+1)^(0+1280),c
  5818   003A4E  C501  F50D         	movff	___fldiv@b,___fldiv@rem
  5819   003A52  C502  F50E         	movff	___fldiv@b+1,___fldiv@rem+1
  5820   003A56  C503  F50F         	movff	___fldiv@b+2,___fldiv@rem+2
  5821   003A5A  C504  F510         	movff	___fldiv@b+3,___fldiv@rem+3
  5822   003A5E  0E00               	movlw	0
  5823   003A60  6E01               	movwf	___fldiv@b^(0+1280),c
  5824   003A62  0E00               	movlw	0
  5825   003A64  6E02               	movwf	(___fldiv@b+1)^(0+1280),c
  5826   003A66  0E00               	movlw	0
  5827   003A68  6E03               	movwf	(___fldiv@b+2)^(0+1280),c
  5828   003A6A  0E00               	movlw	0
  5829   003A6C  6E04               	movwf	(___fldiv@b+3)^(0+1280),c
  5830   003A6E  0E00               	movlw	0
  5831   003A70  6E14               	movwf	___fldiv@grs^(0+1280),c
  5832   003A72  0E00               	movlw	0
  5833   003A74  6E15               	movwf	(___fldiv@grs+1)^(0+1280),c
  5834   003A76  0E00               	movlw	0
  5835   003A78  6E16               	movwf	(___fldiv@grs+2)^(0+1280),c
  5836   003A7A  0E00               	movlw	0
  5837   003A7C  6E17               	movwf	(___fldiv@grs+3)^(0+1280),c
  5838   003A7E  0E00               	movlw	0
  5839   003A80  6E19               	movwf	___fldiv@aexp^(0+1280),c
  5840   003A82  EF7B  F01D         	goto	i2l658
  5841   003A86                     i2l2402:
  5842   003A86  5019               	movf	___fldiv@aexp^(0+1280),w,c
  5843   003A88  B4D8               	btfsc	status,2,c
  5844   003A8A  EF49  F01D         	goto	i2u223_41
  5845   003A8E  EF4B  F01D         	goto	i2u223_40
  5846   003A92                     i2u223_41:
  5847   003A92  EF62  F01D         	goto	i2l2410
  5848   003A96                     i2u223_40:
  5849   003A96  90D8               	bcf	status,0,c
  5850   003A98  360D               	rlcf	___fldiv@rem^(0+1280),f,c
  5851   003A9A  360E               	rlcf	(___fldiv@rem+1)^(0+1280),f,c
  5852   003A9C  360F               	rlcf	(___fldiv@rem+2)^(0+1280),f,c
  5853   003A9E  3610               	rlcf	(___fldiv@rem+3)^(0+1280),f,c
  5854   003AA0  90D8               	bcf	status,0,c
  5855   003AA2  3601               	rlcf	___fldiv@b^(0+1280),f,c
  5856   003AA4  3602               	rlcf	(___fldiv@b+1)^(0+1280),f,c
  5857   003AA6  3603               	rlcf	(___fldiv@b+2)^(0+1280),f,c
  5858   003AA8  3604               	rlcf	(___fldiv@b+3)^(0+1280),f,c
  5859   003AAA  AE17               	btfss	(___fldiv@grs+3)^(0+1280),7,c
  5860   003AAC  EF5A  F01D         	goto	i2u224_41
  5861   003AB0  EF5C  F01D         	goto	i2u224_40
  5862   003AB4                     i2u224_41:
  5863   003AB4  EF5D  F01D         	goto	i2l661
  5864   003AB8                     i2u224_40:
  5865   003AB8  8001               	bsf	___fldiv@b^(0+1280),0,c
  5866   003ABA                     i2l661:
  5867   003ABA  90D8               	bcf	status,0,c
  5868   003ABC  3614               	rlcf	___fldiv@grs^(0+1280),f,c
  5869   003ABE  3615               	rlcf	(___fldiv@grs+1)^(0+1280),f,c
  5870   003AC0  3616               	rlcf	(___fldiv@grs+2)^(0+1280),f,c
  5871   003AC2  3617               	rlcf	(___fldiv@grs+3)^(0+1280),f,c
  5872   003AC4                     i2l2410:
  5873   003AC4  5005               	movf	___fldiv@a^(0+1280),w,c
  5874   003AC6  5C0D               	subwf	___fldiv@rem^(0+1280),w,c
  5875   003AC8  5006               	movf	(___fldiv@a+1)^(0+1280),w,c
  5876   003ACA  580E               	subwfb	(___fldiv@rem+1)^(0+1280),w,c
  5877   003ACC  5007               	movf	(___fldiv@a+2)^(0+1280),w,c
  5878   003ACE  580F               	subwfb	(___fldiv@rem+2)^(0+1280),w,c
  5879   003AD0  5008               	movf	(___fldiv@a+3)^(0+1280),w,c
  5880   003AD2  5810               	subwfb	(___fldiv@rem+3)^(0+1280),w,c
  5881   003AD4  A0D8               	btfss	status,0,c
  5882   003AD6  EF6F  F01D         	goto	i2u225_41
  5883   003ADA  EF71  F01D         	goto	i2u225_40
  5884   003ADE                     i2u225_41:
  5885   003ADE  EF7A  F01D         	goto	i2l2416
  5886   003AE2                     i2u225_40:
  5887   003AE2  8C17               	bsf	(___fldiv@grs+3)^(0+1280),6,c
  5888   003AE4  5005               	movf	___fldiv@a^(0+1280),w,c
  5889   003AE6  5E0D               	subwf	___fldiv@rem^(0+1280),f,c
  5890   003AE8  5006               	movf	(___fldiv@a+1)^(0+1280),w,c
  5891   003AEA  5A0E               	subwfb	(___fldiv@rem+1)^(0+1280),f,c
  5892   003AEC  5007               	movf	(___fldiv@a+2)^(0+1280),w,c
  5893   003AEE  5A0F               	subwfb	(___fldiv@rem+2)^(0+1280),f,c
  5894   003AF0  5008               	movf	(___fldiv@a+3)^(0+1280),w,c
  5895   003AF2  5A10               	subwfb	(___fldiv@rem+3)^(0+1280),f,c
  5896   003AF4                     i2l2416:
  5897   003AF4  2A19               	incf	___fldiv@aexp^(0+1280),f,c
  5898   003AF6                     i2l658:
  5899   003AF6  0E19               	movlw	25
  5900   003AF8  6419               	cpfsgt	___fldiv@aexp^(0+1280),c
  5901   003AFA  EF81  F01D         	goto	i2u226_41
  5902   003AFE  EF83  F01D         	goto	i2u226_40
  5903   003B02                     i2u226_41:
  5904   003B02  EF43  F01D         	goto	i2l2402
  5905   003B06                     i2u226_40:
  5906   003B06  500D               	movf	___fldiv@rem^(0+1280),w,c
  5907   003B08  100E               	iorwf	(___fldiv@rem+1)^(0+1280),w,c
  5908   003B0A  100F               	iorwf	(___fldiv@rem+2)^(0+1280),w,c
  5909   003B0C  1010               	iorwf	(___fldiv@rem+3)^(0+1280),w,c
  5910   003B0E  B4D8               	btfsc	status,2,c
  5911   003B10  EF8C  F01D         	goto	i2u227_41
  5912   003B14  EF8E  F01D         	goto	i2u227_40
  5913   003B18                     i2u227_41:
  5914   003B18  EFA6  F01D         	goto	i2l2428
  5915   003B1C                     i2u227_40:
  5916   003B1C  8014               	bsf	___fldiv@grs^(0+1280),0,c
  5917   003B1E  EFA6  F01D         	goto	i2l2428
  5918   003B22                     i2l2422:
  5919   003B22  90D8               	bcf	status,0,c
  5920   003B24  3601               	rlcf	___fldiv@b^(0+1280),f,c
  5921   003B26  3602               	rlcf	(___fldiv@b+1)^(0+1280),f,c
  5922   003B28  3603               	rlcf	(___fldiv@b+2)^(0+1280),f,c
  5923   003B2A  3604               	rlcf	(___fldiv@b+3)^(0+1280),f,c
  5924   003B2C  AE17               	btfss	(___fldiv@grs+3)^(0+1280),7,c
  5925   003B2E  EF9B  F01D         	goto	i2u228_41
  5926   003B32  EF9D  F01D         	goto	i2u228_40
  5927   003B36                     i2u228_41:
  5928   003B36  EF9E  F01D         	goto	i2l667
  5929   003B3A                     i2u228_40:
  5930   003B3A  8001               	bsf	___fldiv@b^(0+1280),0,c
  5931   003B3C                     i2l667:
  5932   003B3C  90D8               	bcf	status,0,c
  5933   003B3E  3614               	rlcf	___fldiv@grs^(0+1280),f,c
  5934   003B40  3615               	rlcf	(___fldiv@grs+1)^(0+1280),f,c
  5935   003B42  3616               	rlcf	(___fldiv@grs+2)^(0+1280),f,c
  5936   003B44  3617               	rlcf	(___fldiv@grs+3)^(0+1280),f,c
  5937   003B46  0612               	decf	___fldiv@new_exp^(0+1280),f,c
  5938   003B48  A0D8               	btfss	status,0,c
  5939   003B4A  0613               	decf	(___fldiv@new_exp+1)^(0+1280),f,c
  5940   003B4C                     i2l2428:
  5941   003B4C  AE03               	btfss	(___fldiv@b+2)^(0+1280),7,c
  5942   003B4E  EFAB  F01D         	goto	i2u229_41
  5943   003B52  EFAD  F01D         	goto	i2u229_40
  5944   003B56                     i2u229_41:
  5945   003B56  EF91  F01D         	goto	i2l2422
  5946   003B5A                     i2u229_40:
  5947   003B5A  0E00               	movlw	0
  5948   003B5C  6E19               	movwf	___fldiv@aexp^(0+1280),c
  5949   003B5E  AE17               	btfss	(___fldiv@grs+3)^(0+1280),7,c
  5950   003B60  EFB4  F01D         	goto	i2u230_41
  5951   003B64  EFB6  F01D         	goto	i2u230_40
  5952   003B68                     i2u230_41:
  5953   003B68  EFDA  F01D         	goto	i2l669
  5954   003B6C                     i2u230_40:
  5955   003B6C  0EFF               	movlw	255
  5956   003B6E  1414               	andwf	___fldiv@grs^(0+1280),w,c
  5957   003B70  6E09               	movwf	??___fldiv^(0+1280),c
  5958   003B72  0EFF               	movlw	255
  5959   003B74  1415               	andwf	(___fldiv@grs+1)^(0+1280),w,c
  5960   003B76  6E0A               	movwf	(??___fldiv+1)^(0+1280),c
  5961   003B78  0EFF               	movlw	255
  5962   003B7A  1416               	andwf	(___fldiv@grs+2)^(0+1280),w,c
  5963   003B7C  6E0B               	movwf	(??___fldiv+2)^(0+1280),c
  5964   003B7E  0E7F               	movlw	127
  5965   003B80  1417               	andwf	(___fldiv@grs+3)^(0+1280),w,c
  5966   003B82  6E0C               	movwf	(??___fldiv+3)^(0+1280),c
  5967   003B84  5009               	movf	??___fldiv^(0+1280),w,c
  5968   003B86  100A               	iorwf	(??___fldiv+1)^(0+1280),w,c
  5969   003B88  100B               	iorwf	(??___fldiv+2)^(0+1280),w,c
  5970   003B8A  100C               	iorwf	(??___fldiv+3)^(0+1280),w,c
  5971   003B8C  B4D8               	btfsc	status,2,c
  5972   003B8E  EFCB  F01D         	goto	i2u231_41
  5973   003B92  EFCD  F01D         	goto	i2u231_40
  5974   003B96                     i2u231_41:
  5975   003B96  EFD1  F01D         	goto	i2l670
  5976   003B9A                     i2u231_40:
  5977   003B9A                     i2l2436:
  5978   003B9A  0E01               	movlw	1
  5979   003B9C  6E19               	movwf	___fldiv@aexp^(0+1280),c
  5980   003B9E  EFDA  F01D         	goto	i2l669
  5981   003BA2                     i2l670:
  5982   003BA2  A001               	btfss	___fldiv@b^(0+1280),0,c
  5983   003BA4  EFD6  F01D         	goto	i2u232_41
  5984   003BA8  EFD8  F01D         	goto	i2u232_40
  5985   003BAC                     i2u232_41:
  5986   003BAC  EFDA  F01D         	goto	i2l669
  5987   003BB0                     i2u232_40:
  5988   003BB0  EFCD  F01D         	goto	i2l2436
  5989   003BB4                     i2l669:
  5990   003BB4  5019               	movf	___fldiv@aexp^(0+1280),w,c
  5991   003BB6  B4D8               	btfsc	status,2,c
  5992   003BB8  EFE0  F01D         	goto	i2u233_41
  5993   003BBC  EFE2  F01D         	goto	i2u233_40
  5994   003BC0                     i2u233_41:
  5995   003BC0  EF06  F01E         	goto	i2l2448
  5996   003BC4                     i2u233_40:
  5997   003BC4  0E01               	movlw	1
  5998   003BC6  2601               	addwf	___fldiv@b^(0+1280),f,c
  5999   003BC8  0E00               	movlw	0
  6000   003BCA  2202               	addwfc	(___fldiv@b+1)^(0+1280),f,c
  6001   003BCC  2203               	addwfc	(___fldiv@b+2)^(0+1280),f,c
  6002   003BCE  2204               	addwfc	(___fldiv@b+3)^(0+1280),f,c
  6003   003BD0  A004               	btfss	(___fldiv@b+3)^(0+1280),0,c
  6004   003BD2  EFED  F01D         	goto	i2u234_41
  6005   003BD6  EFEF  F01D         	goto	i2u234_40
  6006   003BDA                     i2u234_41:
  6007   003BDA  EF06  F01E         	goto	i2l2448
  6008   003BDE                     i2u234_40:
  6009   003BDE  C501  F509         	movff	___fldiv@b,??___fldiv
  6010   003BE2  C502  F50A         	movff	___fldiv@b+1,??___fldiv+1
  6011   003BE6  C503  F50B         	movff	___fldiv@b+2,??___fldiv+2
  6012   003BEA  C504  F50C         	movff	___fldiv@b+3,??___fldiv+3
  6013   003BEE  340C               	rlcf	(??___fldiv+3)^(0+1280),w,c
  6014   003BF0  320C               	rrcf	(??___fldiv+3)^(0+1280),f,c
  6015   003BF2  320B               	rrcf	(??___fldiv+2)^(0+1280),f,c
  6016   003BF4  320A               	rrcf	(??___fldiv+1)^(0+1280),f,c
  6017   003BF6  3209               	rrcf	??___fldiv^(0+1280),f,c
  6018   003BF8  C509  F501         	movff	??___fldiv,___fldiv@b
  6019   003BFC  C50A  F502         	movff	??___fldiv+1,___fldiv@b+1
  6020   003C00  C50B  F503         	movff	??___fldiv+2,___fldiv@b+2
  6021   003C04  C50C  F504         	movff	??___fldiv+3,___fldiv@b+3
  6022   003C08  4A12               	infsnz	___fldiv@new_exp^(0+1280),f,c
  6023   003C0A  2A13               	incf	(___fldiv@new_exp+1)^(0+1280),f,c
  6024   003C0C                     i2l2448:
  6025   003C0C  BE13               	btfsc	(___fldiv@new_exp+1)^(0+1280),7,c
  6026   003C0E  EF11  F01E         	goto	i2u235_41
  6027   003C12  5013               	movf	(___fldiv@new_exp+1)^(0+1280),w,c
  6028   003C14  E108               	bnz	i2u235_40
  6029   003C16  2812               	incf	___fldiv@new_exp^(0+1280),w,c
  6030   003C18  A0D8               	btfss	status,0,c
  6031   003C1A  EF11  F01E         	goto	i2u235_41
  6032   003C1E  EF13  F01E         	goto	i2u235_40
  6033   003C22                     i2u235_41:
  6034   003C22  EF1E  F01E         	goto	i2l2452
  6035   003C26                     i2u235_40:
  6036   003C26  0E00               	movlw	0
  6037   003C28  6E13               	movwf	(___fldiv@new_exp+1)^(0+1280),c
  6038   003C2A  6812               	setf	___fldiv@new_exp^(0+1280),c
  6039   003C2C  0E00               	movlw	0
  6040   003C2E  6E01               	movwf	___fldiv@b^(0+1280),c
  6041   003C30  0E00               	movlw	0
  6042   003C32  6E02               	movwf	(___fldiv@b+1)^(0+1280),c
  6043   003C34  0E00               	movlw	0
  6044   003C36  6E03               	movwf	(___fldiv@b+2)^(0+1280),c
  6045   003C38  0E00               	movlw	0
  6046   003C3A  6E04               	movwf	(___fldiv@b+3)^(0+1280),c
  6047   003C3C                     i2l2452:
  6048   003C3C  BE13               	btfsc	(___fldiv@new_exp+1)^(0+1280),7,c
  6049   003C3E  EF2B  F01E         	goto	i2u236_40
  6050   003C42  5013               	movf	(___fldiv@new_exp+1)^(0+1280),w,c
  6051   003C44  E106               	bnz	i2u236_41
  6052   003C46  0412               	decf	___fldiv@new_exp^(0+1280),w,c
  6053   003C48  B0D8               	btfsc	status,0,c
  6054   003C4A  EF29  F01E         	goto	i2u236_41
  6055   003C4E  EF2B  F01E         	goto	i2u236_40
  6056   003C52                     i2u236_41:
  6057   003C52  EF39  F01E         	goto	i2l2456
  6058   003C56                     i2u236_40:
  6059   003C56  0E00               	movlw	0
  6060   003C58  6E13               	movwf	(___fldiv@new_exp+1)^(0+1280),c
  6061   003C5A  0E00               	movlw	0
  6062   003C5C  6E12               	movwf	___fldiv@new_exp^(0+1280),c
  6063   003C5E  0E00               	movlw	0
  6064   003C60  6E01               	movwf	___fldiv@b^(0+1280),c
  6065   003C62  0E00               	movlw	0
  6066   003C64  6E02               	movwf	(___fldiv@b+1)^(0+1280),c
  6067   003C66  0E00               	movlw	0
  6068   003C68  6E03               	movwf	(___fldiv@b+2)^(0+1280),c
  6069   003C6A  0E00               	movlw	0
  6070   003C6C  6E04               	movwf	(___fldiv@b+3)^(0+1280),c
  6071   003C6E  0E00               	movlw	0
  6072   003C70  6E11               	movwf	___fldiv@sign^(0+1280),c
  6073   003C72                     i2l2456:
  6074   003C72  C512  F518         	movff	___fldiv@new_exp,___fldiv@bexp
  6075   003C76  A018               	btfss	___fldiv@bexp^(0+1280),0,c
  6076   003C78  EF40  F01E         	goto	i2u237_41
  6077   003C7C  EF42  F01E         	goto	i2u237_40
  6078   003C80                     i2u237_41:
  6079   003C80  EF45  F01E         	goto	i2l2462
  6080   003C84                     i2u237_40:
  6081   003C84  8E03               	bsf	(___fldiv@b+2)^(0+1280),7,c
  6082   003C86  EF46  F01E         	goto	i2l2464
  6083   003C8A                     i2l2462:
  6084   003C8A  9E03               	bcf	(___fldiv@b+2)^(0+1280),7,c
  6085   003C8C                     i2l2464:
  6086   003C8C  90D8               	bcf	status,0,c
  6087   003C8E  3018               	rrcf	___fldiv@bexp^(0+1280),w,c
  6088   003C90  6E04               	movwf	(___fldiv@b+3)^(0+1280),c
  6089   003C92  EFFC  F01C         	goto	i2l2378
  6090   003C96                     i2l656:
  6091   003C96  0012               	return		;funcret
  6092   003C98                     __end_of___fldiv:
  6093                           	callstack 0
  6094                           
  6095 ;; *************** function ___xxtofl *****************
  6096 ;; Defined at:
  6097 ;;		line 10 in file "C:\Program Files\Microchip\xc8\v2.40\pic\sources\c99\common\xxtofl.c"
  6098 ;; Parameters:    Size  Location     Type
  6099 ;;  sign            1    wreg     unsigned char 
  6100 ;;  val             4    0[COMRAM] long 
  6101 ;; Auto vars:     Size  Location     Type
  6102 ;;  sign            1    8[COMRAM] unsigned char 
  6103 ;;  arg             4   10[COMRAM] unsigned long 
  6104 ;;  exp             1    9[COMRAM] unsigned char 
  6105 ;; Return value:  Size  Location     Type
  6106 ;;                  4    0[COMRAM] unsigned char 
  6107 ;; Registers used:
  6108 ;;		wreg, status,2, status,0
  6109 ;; Tracked objects:
  6110 ;;		On entry : 0/0
  6111 ;;		On exit  : 0/0
  6112 ;;		Unchanged: 0/0
  6113 ;; Data sizes:     COMRAM   BANK5   BANK6   BANK7   BANK8   BANK9  BANK10  BANK11  BANK12  BANK13  BANK14  BANK15  BANK1
      +6  BANK17  BANK18  BANK19  BANK20  BANK21  BANK22  BANK23  BANK24  BANK25  BANK26  BANK27  BANK28  BANK29  BANK30  BANK3
      +1  BANK32  BANK33  BANK34  BANK35  BANK36
  6114 ;;      Params:         4       0       0       0       0       0       0       0       0       0       0       0       
      +0       0       0       0       0       0       0       0       0       0       0       0       0       0       0       
      +0       0       0       0       0       0
  6115 ;;      Locals:         6       0       0       0       0       0       0       0       0       0       0       0       
      +0       0       0       0       0       0       0       0       0       0       0       0       0       0       0       
      +0       0       0       0       0       0
  6116 ;;      Temps:          4       0       0       0       0       0       0       0       0       0       0       0       
      +0       0       0       0       0       0       0       0       0       0       0       0       0       0       0       
      +0       0       0       0       0       0
  6117 ;;      Totals:        14       0       0       0       0       0       0       0       0       0       0       0       
      +0       0       0       0       0       0       0       0       0       0       0       0       0       0       0       
      +0       0       0       0       0       0
  6118 ;;Total ram usage:       14 bytes
  6119 ;; Hardware stack levels used: 1
  6120 ;; This function calls:
  6121 ;;		Nothing
  6122 ;; This function is called by:
  6123 ;;		_ADC_ISR
  6124 ;; This function uses a non-reentrant model
  6125 ;;
  6126                           
  6127                           	psect	text23
  6128   0040DA                     __ptext23:
  6129                           	callstack 0
  6130   0040DA                     ___xxtofl:
  6131                           	callstack 125
  6132                           
  6133                           ;incstack = 0
  6134                           ;___xxtofl@sign stored from wreg
  6135   0040DA  6E09               	movwf	___xxtofl@sign^(0+1280),c
  6136   0040DC  5009               	movf	___xxtofl@sign^(0+1280),w,c
  6137   0040DE  B4D8               	btfsc	status,2,c
  6138   0040E0  EF74  F020         	goto	i2u330_41
  6139   0040E4  EF76  F020         	goto	i2u330_40
  6140   0040E8                     i2u330_41:
  6141   0040E8  EF98  F020         	goto	i2l729
  6142   0040EC                     i2u330_40:
  6143   0040EC  BE04               	btfsc	(___xxtofl@val+3)^(0+1280),7,c
  6144   0040EE  EF7D  F020         	goto	i2u331_40
  6145   0040F2  EF7B  F020         	goto	i2u331_41
  6146   0040F6                     i2u331_41:
  6147   0040F6  EF98  F020         	goto	i2l729
  6148   0040FA                     i2u331_40:
  6149   0040FA  C501  F505         	movff	___xxtofl@val,??___xxtofl
  6150   0040FE  C502  F506         	movff	___xxtofl@val+1,??___xxtofl+1
  6151   004102  C503  F507         	movff	___xxtofl@val+2,??___xxtofl+2
  6152   004106  C504  F508         	movff	___xxtofl@val+3,??___xxtofl+3
  6153   00410A  1E05               	comf	??___xxtofl^(0+1280),f,c
  6154   00410C  1E06               	comf	(??___xxtofl+1)^(0+1280),f,c
  6155   00410E  1E07               	comf	(??___xxtofl+2)^(0+1280),f,c
  6156   004110  1E08               	comf	(??___xxtofl+3)^(0+1280),f,c
  6157   004112  2A05               	incf	??___xxtofl^(0+1280),f,c
  6158   004114  0E00               	movlw	0
  6159   004116  2206               	addwfc	(??___xxtofl+1)^(0+1280),f,c
  6160   004118  2207               	addwfc	(??___xxtofl+2)^(0+1280),f,c
  6161   00411A  2208               	addwfc	(??___xxtofl+3)^(0+1280),f,c
  6162   00411C  C505  F50B         	movff	??___xxtofl,___xxtofl@arg
  6163   004120  C506  F50C         	movff	??___xxtofl+1,___xxtofl@arg+1
  6164   004124  C507  F50D         	movff	??___xxtofl+2,___xxtofl@arg+2
  6165   004128  C508  F50E         	movff	??___xxtofl+3,___xxtofl@arg+3
  6166   00412C  EFA0  F020         	goto	i2l3114
  6167   004130                     i2l729:
  6168   004130  C501  F50B         	movff	___xxtofl@val,___xxtofl@arg
  6169   004134  C502  F50C         	movff	___xxtofl@val+1,___xxtofl@arg+1
  6170   004138  C503  F50D         	movff	___xxtofl@val+2,___xxtofl@arg+2
  6171   00413C  C504  F50E         	movff	___xxtofl@val+3,___xxtofl@arg+3
  6172   004140                     i2l3114:
  6173   004140  5001               	movf	___xxtofl@val^(0+1280),w,c
  6174   004142  1002               	iorwf	(___xxtofl@val+1)^(0+1280),w,c
  6175   004144  1003               	iorwf	(___xxtofl@val+2)^(0+1280),w,c
  6176   004146  1004               	iorwf	(___xxtofl@val+3)^(0+1280),w,c
  6177   004148  A4D8               	btfss	status,2,c
  6178   00414A  EFA9  F020         	goto	i2u332_41
  6179   00414E  EFAB  F020         	goto	i2u332_40
  6180   004152                     i2u332_41:
  6181   004152  EFB5  F020         	goto	i2l3120
  6182   004156                     i2u332_40:
  6183   004156  0E00               	movlw	0
  6184   004158  6E01               	movwf	?___xxtofl^(0+1280),c
  6185   00415A  0E00               	movlw	0
  6186   00415C  6E02               	movwf	(?___xxtofl+1)^(0+1280),c
  6187   00415E  0E00               	movlw	0
  6188   004160  6E03               	movwf	(?___xxtofl+2)^(0+1280),c
  6189   004162  0E00               	movlw	0
  6190   004164  6E04               	movwf	(?___xxtofl+3)^(0+1280),c
  6191   004166  EF46  F021         	goto	i2l732
  6192   00416A                     i2l3120:
  6193   00416A  0E96               	movlw	150
  6194   00416C  6E0A               	movwf	___xxtofl@exp^(0+1280),c
  6195   00416E  EFBF  F020         	goto	i2l3124
  6196   004172                     i2l3122:
  6197   004172  2A0A               	incf	___xxtofl@exp^(0+1280),f,c
  6198   004174  90D8               	bcf	status,0,c
  6199   004176  320E               	rrcf	(___xxtofl@arg+3)^(0+1280),f,c
  6200   004178  320D               	rrcf	(___xxtofl@arg+2)^(0+1280),f,c
  6201   00417A  320C               	rrcf	(___xxtofl@arg+1)^(0+1280),f,c
  6202   00417C  320B               	rrcf	___xxtofl@arg^(0+1280),f,c
  6203   00417E                     i2l3124:
  6204   00417E  0E00               	movlw	0
  6205   004180  140B               	andwf	___xxtofl@arg^(0+1280),w,c
  6206   004182  6E05               	movwf	??___xxtofl^(0+1280),c
  6207   004184  0E00               	movlw	0
  6208   004186  140C               	andwf	(___xxtofl@arg+1)^(0+1280),w,c
  6209   004188  6E06               	movwf	(??___xxtofl+1)^(0+1280),c
  6210   00418A  0E00               	movlw	0
  6211   00418C  140D               	andwf	(___xxtofl@arg+2)^(0+1280),w,c
  6212   00418E  6E07               	movwf	(??___xxtofl+2)^(0+1280),c
  6213   004190  0EFE               	movlw	254
  6214   004192  140E               	andwf	(___xxtofl@arg+3)^(0+1280),w,c
  6215   004194  6E08               	movwf	(??___xxtofl+3)^(0+1280),c
  6216   004196  5005               	movf	??___xxtofl^(0+1280),w,c
  6217   004198  1006               	iorwf	(??___xxtofl+1)^(0+1280),w,c
  6218   00419A  1007               	iorwf	(??___xxtofl+2)^(0+1280),w,c
  6219   00419C  1008               	iorwf	(??___xxtofl+3)^(0+1280),w,c
  6220   00419E  A4D8               	btfss	status,2,c
  6221   0041A0  EFD4  F020         	goto	i2u333_41
  6222   0041A4  EFD6  F020         	goto	i2u333_40
  6223   0041A8                     i2u333_41:
  6224   0041A8  EFB9  F020         	goto	i2l3122
  6225   0041AC                     i2u333_40:
  6226   0041AC  EFE4  F020         	goto	i2l736
  6227   0041B0                     i2l3126:
  6228   0041B0  2A0A               	incf	___xxtofl@exp^(0+1280),f,c
  6229   0041B2  0E01               	movlw	1
  6230   0041B4  260B               	addwf	___xxtofl@arg^(0+1280),f,c
  6231   0041B6  0E00               	movlw	0
  6232   0041B8  220C               	addwfc	(___xxtofl@arg+1)^(0+1280),f,c
  6233   0041BA  220D               	addwfc	(___xxtofl@arg+2)^(0+1280),f,c
  6234   0041BC  220E               	addwfc	(___xxtofl@arg+3)^(0+1280),f,c
  6235   0041BE  90D8               	bcf	status,0,c
  6236   0041C0  320E               	rrcf	(___xxtofl@arg+3)^(0+1280),f,c
  6237   0041C2  320D               	rrcf	(___xxtofl@arg+2)^(0+1280),f,c
  6238   0041C4  320C               	rrcf	(___xxtofl@arg+1)^(0+1280),f,c
  6239   0041C6  320B               	rrcf	___xxtofl@arg^(0+1280),f,c
  6240   0041C8                     i2l736:
  6241   0041C8  0E00               	movlw	0
  6242   0041CA  140B               	andwf	___xxtofl@arg^(0+1280),w,c
  6243   0041CC  6E05               	movwf	??___xxtofl^(0+1280),c
  6244   0041CE  0E00               	movlw	0
  6245   0041D0  140C               	andwf	(___xxtofl@arg+1)^(0+1280),w,c
  6246   0041D2  6E06               	movwf	(??___xxtofl+1)^(0+1280),c
  6247   0041D4  0E00               	movlw	0
  6248   0041D6  140D               	andwf	(___xxtofl@arg+2)^(0+1280),w,c
  6249   0041D8  6E07               	movwf	(??___xxtofl+2)^(0+1280),c
  6250   0041DA  0EFF               	movlw	255
  6251   0041DC  140E               	andwf	(___xxtofl@arg+3)^(0+1280),w,c
  6252   0041DE  6E08               	movwf	(??___xxtofl+3)^(0+1280),c
  6253   0041E0  5005               	movf	??___xxtofl^(0+1280),w,c
  6254   0041E2  1006               	iorwf	(??___xxtofl+1)^(0+1280),w,c
  6255   0041E4  1007               	iorwf	(??___xxtofl+2)^(0+1280),w,c
  6256   0041E6  1008               	iorwf	(??___xxtofl+3)^(0+1280),w,c
  6257   0041E8  A4D8               	btfss	status,2,c
  6258   0041EA  EFF9  F020         	goto	i2u334_41
  6259   0041EE  EFFB  F020         	goto	i2u334_40
  6260   0041F2                     i2u334_41:
  6261   0041F2  EFD8  F020         	goto	i2l3126
  6262   0041F6                     i2u334_40:
  6263   0041F6  EF03  F021         	goto	i2l3134
  6264   0041FA                     i2l3132:
  6265   0041FA  060A               	decf	___xxtofl@exp^(0+1280),f,c
  6266   0041FC  90D8               	bcf	status,0,c
  6267   0041FE  360B               	rlcf	___xxtofl@arg^(0+1280),f,c
  6268   004200  360C               	rlcf	(___xxtofl@arg+1)^(0+1280),f,c
  6269   004202  360D               	rlcf	(___xxtofl@arg+2)^(0+1280),f,c
  6270   004204  360E               	rlcf	(___xxtofl@arg+3)^(0+1280),f,c
  6271   004206                     i2l3134:
  6272   004206  BE0D               	btfsc	(___xxtofl@arg+2)^(0+1280),7,c
  6273   004208  EF08  F021         	goto	i2u335_41
  6274   00420C  EF0A  F021         	goto	i2u335_40
  6275   004210                     i2u335_41:
  6276   004210  EF12  F021         	goto	i2l743
  6277   004214                     i2u335_40:
  6278   004214  0E02               	movlw	2
  6279   004216  600A               	cpfslt	___xxtofl@exp^(0+1280),c
  6280   004218  EF10  F021         	goto	i2u336_41
  6281   00421C  EF12  F021         	goto	i2u336_40
  6282   004220                     i2u336_41:
  6283   004220  EFFD  F020         	goto	i2l3132
  6284   004224                     i2u336_40:
  6285   004224                     i2l743:
  6286   004224  B00A               	btfsc	___xxtofl@exp^(0+1280),0,c
  6287   004226  EF17  F021         	goto	i2u337_41
  6288   00422A  EF19  F021         	goto	i2u337_40
  6289   00422E                     i2u337_41:
  6290   00422E  EF1A  F021         	goto	i2l3140
  6291   004232                     i2u337_40:
  6292   004232  9E0D               	bcf	(___xxtofl@arg+2)^(0+1280),7,c
  6293   004234                     i2l3140:
  6294   004234  90D8               	bcf	status,0,c
  6295   004236  320A               	rrcf	___xxtofl@exp^(0+1280),f,c
  6296   004238  C50A  F505         	movff	___xxtofl@exp,??___xxtofl
  6297   00423C  6A06               	clrf	(??___xxtofl+1)^(0+1280),c
  6298   00423E  6A07               	clrf	(??___xxtofl+2)^(0+1280),c
  6299   004240  6A08               	clrf	(??___xxtofl+3)^(0+1280),c
  6300   004242  C505  F508         	movff	??___xxtofl,??___xxtofl+3
  6301   004246  6A07               	clrf	(??___xxtofl+2)^(0+1280),c
  6302   004248  6A06               	clrf	(??___xxtofl+1)^(0+1280),c
  6303   00424A  6A05               	clrf	??___xxtofl^(0+1280),c
  6304   00424C  5005               	movf	??___xxtofl^(0+1280),w,c
  6305   00424E  120B               	iorwf	___xxtofl@arg^(0+1280),f,c
  6306   004250  5006               	movf	(??___xxtofl+1)^(0+1280),w,c
  6307   004252  120C               	iorwf	(___xxtofl@arg+1)^(0+1280),f,c
  6308   004254  5007               	movf	(??___xxtofl+2)^(0+1280),w,c
  6309   004256  120D               	iorwf	(___xxtofl@arg+2)^(0+1280),f,c
  6310   004258  5008               	movf	(??___xxtofl+3)^(0+1280),w,c
  6311   00425A  120E               	iorwf	(___xxtofl@arg+3)^(0+1280),f,c
  6312   00425C  5009               	movf	___xxtofl@sign^(0+1280),w,c
  6313   00425E  B4D8               	btfsc	status,2,c
  6314   004260  EF34  F021         	goto	i2u338_41
  6315   004264  EF36  F021         	goto	i2u338_40
  6316   004268                     i2u338_41:
  6317   004268  EF3E  F021         	goto	i2l3150
  6318   00426C                     i2u338_40:
  6319   00426C  BE04               	btfsc	(___xxtofl@val+3)^(0+1280),7,c
  6320   00426E  EF3D  F021         	goto	i2u339_40
  6321   004272  EF3B  F021         	goto	i2u339_41
  6322   004276                     i2u339_41:
  6323   004276  EF3E  F021         	goto	i2l3150
  6324   00427A                     i2u339_40:
  6325   00427A  8E0E               	bsf	(___xxtofl@arg+3)^(0+1280),7,c
  6326   00427C                     i2l3150:
  6327   00427C  C50B  F501         	movff	___xxtofl@arg,?___xxtofl
  6328   004280  C50C  F502         	movff	___xxtofl@arg+1,?___xxtofl+1
  6329   004284  C50D  F503         	movff	___xxtofl@arg+2,?___xxtofl+2
  6330   004288  C50E  F504         	movff	___xxtofl@arg+3,?___xxtofl+3
  6331   00428C                     i2l732:
  6332   00428C  0012               	return		;funcret
  6333   00428E                     __end_of___xxtofl:
  6334                           	callstack 0
  6335                           
  6336                           ;
  6337                           ; Interrupt Vector Table @ 0x8
  6338                           ;
  6339                           
  6340                           	psect	ivt0x8
  6341   000008                     __pivt0x8:
  6342                           	callstack 0
  6343   000008                     ivt0x8_base:
  6344                           	callstack 0
  6345                           
  6346                           ; Vector 0 : SWINT
  6347   000008  0040               	dw	ivt0x8_undefint shr (0+2)
  6348                           
  6349                           ; Vector 1 : HLVD
  6350   00000A  0040               	dw	ivt0x8_undefint shr (0+2)
  6351                           
  6352                           ; Vector 2 : OSF
  6353   00000C  0040               	dw	ivt0x8_undefint shr (0+2)
  6354                           
  6355                           ; Vector 3 : CSW
  6356   00000E  0040               	dw	ivt0x8_undefint shr (0+2)
  6357                           
  6358                           ; Vector 4 : Undefined
  6359   000010  0040               	dw	ivt0x8_undefint shr (0+2)
  6360                           
  6361                           ; Vector 5 : CLC1
  6362   000012  0040               	dw	ivt0x8_undefint shr (0+2)
  6363                           
  6364                           ; Vector 6 : Undefined
  6365   000014  0040               	dw	ivt0x8_undefint shr (0+2)
  6366                           
  6367                           ; Vector 7 : IOC
  6368   000016  0040               	dw	ivt0x8_undefint shr (0+2)
  6369                           
  6370                           ; Vector 8 : INT0
  6371   000018  0040               	dw	ivt0x8_undefint shr (0+2)
  6372                           
  6373                           ; Vector 9 : ZCD
  6374   00001A  0040               	dw	ivt0x8_undefint shr (0+2)
  6375                           
  6376                           ; Vector 10 : AD
  6377   00001C  1166               	dw	_ADC_ISR shr (0+2)
  6378                           
  6379                           ; Vector 11 : ACT
  6380   00001E  0040               	dw	ivt0x8_undefint shr (0+2)
  6381                           
  6382                           ; Vector 12 : CMP1
  6383   000020  0040               	dw	ivt0x8_undefint shr (0+2)
  6384                           
  6385                           ; Vector 13 : SMT1
  6386   000022  0040               	dw	ivt0x8_undefint shr (0+2)
  6387                           
  6388                           ; Vector 14 : SMT1PRA
  6389   000024  0040               	dw	ivt0x8_undefint shr (0+2)
  6390                           
  6391                           ; Vector 15 : SMT1PRW
  6392   000026  0040               	dw	ivt0x8_undefint shr (0+2)
  6393                           
  6394                           ; Vector 16 : ADT
  6395   000028  0040               	dw	ivt0x8_undefint shr (0+2)
  6396                           
  6397                           ; Vector 17 : Undefined
  6398   00002A  0040               	dw	ivt0x8_undefint shr (0+2)
  6399                           
  6400                           ; Vector 18 : Undefined
  6401   00002C  0040               	dw	ivt0x8_undefint shr (0+2)
  6402                           
  6403                           ; Vector 19 : Undefined
  6404   00002E  0040               	dw	ivt0x8_undefint shr (0+2)
  6405                           
  6406                           ; Vector 20 : DMA1SCNT
  6407   000030  0040               	dw	ivt0x8_undefint shr (0+2)
  6408                           
  6409                           ; Vector 21 : DMA1DCNT
  6410   000032  0040               	dw	ivt0x8_undefint shr (0+2)
  6411                           
  6412                           ; Vector 22 : DMA1OR
  6413   000034  0040               	dw	ivt0x8_undefint shr (0+2)
  6414                           
  6415                           ; Vector 23 : DMA1A
  6416   000036  0040               	dw	ivt0x8_undefint shr (0+2)
  6417                           
  6418                           ; Vector 24 : SPI1RX
  6419   000038  0040               	dw	ivt0x8_undefint shr (0+2)
  6420                           
  6421                           ; Vector 25 : SPI1TX
  6422   00003A  0040               	dw	ivt0x8_undefint shr (0+2)
  6423                           
  6424                           ; Vector 26 : SPI1
  6425   00003C  0040               	dw	ivt0x8_undefint shr (0+2)
  6426                           
  6427                           ; Vector 27 : TMR2
  6428   00003E  0040               	dw	ivt0x8_undefint shr (0+2)
  6429                           
  6430                           ; Vector 28 : TMR1
  6431   000040  0040               	dw	ivt0x8_undefint shr (0+2)
  6432                           
  6433                           ; Vector 29 : TMR1G
  6434   000042  0040               	dw	ivt0x8_undefint shr (0+2)
  6435                           
  6436                           ; Vector 30 : CCP1
  6437   000044  0040               	dw	ivt0x8_undefint shr (0+2)
  6438                           
  6439                           ; Vector 31 : TMR0
  6440   000046  0040               	dw	ivt0x8_undefint shr (0+2)
  6441                           
  6442                           ; Vector 32 : U1RX
  6443   000048  0040               	dw	ivt0x8_undefint shr (0+2)
  6444                           
  6445                           ; Vector 33 : U1TX
  6446   00004A  0040               	dw	ivt0x8_undefint shr (0+2)
  6447                           
  6448                           ; Vector 34 : U1E
  6449   00004C  0040               	dw	ivt0x8_undefint shr (0+2)
  6450                           
  6451                           ; Vector 35 : U1
  6452   00004E  0040               	dw	ivt0x8_undefint shr (0+2)
  6453                           
  6454                           ; Vector 36 : Undefined
  6455   000050  0040               	dw	ivt0x8_undefint shr (0+2)
  6456                           
  6457                           ; Vector 37 : Undefined
  6458   000052  0040               	dw	ivt0x8_undefint shr (0+2)
  6459                           
  6460                           ; Vector 38 : PWM1PR
  6461   000054  0040               	dw	ivt0x8_undefint shr (0+2)
  6462                           
  6463                           ; Vector 39 : PWM1
  6464   000056  0040               	dw	ivt0x8_undefint shr (0+2)
  6465                           
  6466                           ; Vector 40 : SPI2RX
  6467   000058  0040               	dw	ivt0x8_undefint shr (0+2)
  6468                           
  6469                           ; Vector 41 : SPI2TX
  6470   00005A  0040               	dw	ivt0x8_undefint shr (0+2)
  6471                           
  6472                           ; Vector 42 : SPI2
  6473   00005C  0040               	dw	ivt0x8_undefint shr (0+2)
  6474                           
  6475                           ; Vector 43 : Undefined
  6476   00005E  0040               	dw	ivt0x8_undefint shr (0+2)
  6477                           
  6478                           ; Vector 44 : TMR3
  6479   000060  0040               	dw	ivt0x8_undefint shr (0+2)
  6480                           
  6481                           ; Vector 45 : TMR3G
  6482   000062  0040               	dw	ivt0x8_undefint shr (0+2)
  6483                           
  6484                           ; Vector 46 : PWM2PR
  6485   000064  0040               	dw	ivt0x8_undefint shr (0+2)
  6486                           
  6487                           ; Vector 47 : PWM2
  6488   000066  0040               	dw	ivt0x8_undefint shr (0+2)
  6489                           
  6490                           ; Vector 48 : INT1
  6491   000068  0040               	dw	ivt0x8_undefint shr (0+2)
  6492                           
  6493                           ; Vector 49 : CLC2
  6494   00006A  0040               	dw	ivt0x8_undefint shr (0+2)
  6495                           
  6496                           ; Vector 50 : CWG1
  6497   00006C  0040               	dw	ivt0x8_undefint shr (0+2)
  6498                           
  6499                           ; Vector 51 : NCO1
  6500   00006E  0040               	dw	ivt0x8_undefint shr (0+2)
  6501                           
  6502                           ; Vector 52 : DMA2SCNT
  6503   000070  0040               	dw	ivt0x8_undefint shr (0+2)
  6504                           
  6505                           ; Vector 53 : DMA2DCNT
  6506   000072  0040               	dw	ivt0x8_undefint shr (0+2)
  6507                           
  6508                           ; Vector 54 : DMA2OR
  6509   000074  0040               	dw	ivt0x8_undefint shr (0+2)
  6510                           
  6511                           ; Vector 55 : DMA2A
  6512   000076  0040               	dw	ivt0x8_undefint shr (0+2)
  6513                           
  6514                           ; Vector 56 : I2C1RX
  6515   000078  0040               	dw	ivt0x8_undefint shr (0+2)
  6516                           
  6517                           ; Vector 57 : I2C1TX
  6518   00007A  0040               	dw	ivt0x8_undefint shr (0+2)
  6519                           
  6520                           ; Vector 58 : I2C1
  6521   00007C  0040               	dw	ivt0x8_undefint shr (0+2)
  6522                           
  6523                           ; Vector 59 : I2C1E
  6524   00007E  0040               	dw	ivt0x8_undefint shr (0+2)
  6525                           
  6526                           ; Vector 60 : Undefined
  6527   000080  0040               	dw	ivt0x8_undefint shr (0+2)
  6528                           
  6529                           ; Vector 61 : CLC3
  6530   000082  0040               	dw	ivt0x8_undefint shr (0+2)
  6531                           
  6532                           ; Vector 62 : PWM3PR
  6533   000084  0040               	dw	ivt0x8_undefint shr (0+2)
  6534                           
  6535                           ; Vector 63 : PWM3
  6536   000086  0040               	dw	ivt0x8_undefint shr (0+2)
  6537                           
  6538                           ; Vector 64 : U2RX
  6539   000088  0040               	dw	ivt0x8_undefint shr (0+2)
  6540                           
  6541                           ; Vector 65 : U2TX
  6542   00008A  0040               	dw	ivt0x8_undefint shr (0+2)
  6543                           
  6544                           ; Vector 66 : U2E
  6545   00008C  0040               	dw	ivt0x8_undefint shr (0+2)
  6546                           
  6547                           ; Vector 67 : U2
  6548   00008E  0040               	dw	ivt0x8_undefint shr (0+2)
  6549                           
  6550                           ; Vector 68 : TMR5
  6551   000090  0040               	dw	ivt0x8_undefint shr (0+2)
  6552                           
  6553                           ; Vector 69 : TMR5G
  6554   000092  0040               	dw	ivt0x8_undefint shr (0+2)
  6555                           
  6556                           ; Vector 70 : CCP2
  6557   000094  0040               	dw	ivt0x8_undefint shr (0+2)
  6558                           
  6559                           ; Vector 71 : SCAN
  6560   000096  0040               	dw	ivt0x8_undefint shr (0+2)
  6561                           
  6562                           ; Vector 72 : U3RX
  6563   000098  0040               	dw	ivt0x8_undefint shr (0+2)
  6564                           
  6565                           ; Vector 73 : U3TX
  6566   00009A  0040               	dw	ivt0x8_undefint shr (0+2)
  6567                           
  6568                           ; Vector 74 : U3E
  6569   00009C  0040               	dw	ivt0x8_undefint shr (0+2)
  6570                           
  6571                           ; Vector 75 : U3
  6572   00009E  0040               	dw	ivt0x8_undefint shr (0+2)
  6573                           
  6574                           ; Vector 76 : Undefined
  6575   0000A0  0040               	dw	ivt0x8_undefint shr (0+2)
  6576                           
  6577                           ; Vector 77 : CLC4
  6578   0000A2  0040               	dw	ivt0x8_undefint shr (0+2)
  6579                           
  6580                           ; Vector 78 : Undefined
  6581   0000A4  0040               	dw	ivt0x8_undefint shr (0+2)
  6582                           
  6583                           ; Vector 79 : Undefined
  6584   0000A6  0040               	dw	ivt0x8_undefint shr (0+2)
  6585                           
  6586                           ; Vector 80 : INT2
  6587   0000A8  0040               	dw	ivt0x8_undefint shr (0+2)
  6588                           
  6589                           ; Vector 81 : CLC5
  6590   0000AA  0040               	dw	ivt0x8_undefint shr (0+2)
  6591                           
  6592                           ; Vector 82 : CWG2
  6593   0000AC  0040               	dw	ivt0x8_undefint shr (0+2)
  6594                           
  6595                           ; Vector 83 : NCO2
  6596   0000AE  0040               	dw	ivt0x8_undefint shr (0+2)
  6597                           
  6598                           ; Vector 84 : DMA3SCNT
  6599   0000B0  0040               	dw	ivt0x8_undefint shr (0+2)
  6600                           
  6601                           ; Vector 85 : DMA3DCNT
  6602   0000B2  0040               	dw	ivt0x8_undefint shr (0+2)
  6603                           
  6604                           ; Vector 86 : DMA3OR
  6605   0000B4  0040               	dw	ivt0x8_undefint shr (0+2)
  6606                           
  6607                           ; Vector 87 : DMA3A
  6608   0000B6  0040               	dw	ivt0x8_undefint shr (0+2)
  6609                           
  6610                           ; Vector 88 : CCP3
  6611   0000B8  0040               	dw	ivt0x8_undefint shr (0+2)
  6612                           
  6613                           ; Vector 89 : CLC6
  6614   0000BA  0040               	dw	ivt0x8_undefint shr (0+2)
  6615                           
  6616                           ; Vector 90 : CWG3
  6617   0000BC  0040               	dw	ivt0x8_undefint shr (0+2)
  6618                           
  6619                           ; Vector 91 : TMR4
  6620   0000BE  0040               	dw	ivt0x8_undefint shr (0+2)
  6621                           
  6622                           ; Vector 92 : DMA4SCNT
  6623   0000C0  0040               	dw	ivt0x8_undefint shr (0+2)
  6624                           
  6625                           ; Vector 93 : DMA4DCNT
  6626   0000C2  0040               	dw	ivt0x8_undefint shr (0+2)
  6627                           
  6628                           ; Vector 94 : DMA4OR
  6629   0000C4  0040               	dw	ivt0x8_undefint shr (0+2)
  6630                           
  6631                           ; Vector 95 : DMA4A
  6632   0000C6  0040               	dw	ivt0x8_undefint shr (0+2)
  6633                           
  6634                           ; Vector 96 : U4RX
  6635   0000C8  0040               	dw	ivt0x8_undefint shr (0+2)
  6636                           
  6637                           ; Vector 97 : U4TX
  6638   0000CA  0040               	dw	ivt0x8_undefint shr (0+2)
  6639                           
  6640                           ; Vector 98 : U4E
  6641   0000CC  0040               	dw	ivt0x8_undefint shr (0+2)
  6642                           
  6643                           ; Vector 99 : U4
  6644   0000CE  0040               	dw	ivt0x8_undefint shr (0+2)
  6645                           
  6646                           ; Vector 100 : DMA5SCNT
  6647   0000D0  0040               	dw	ivt0x8_undefint shr (0+2)
  6648                           
  6649                           ; Vector 101 : DMA5DCNT
  6650   0000D2  0040               	dw	ivt0x8_undefint shr (0+2)
  6651                           
  6652                           ; Vector 102 : DMA5OR
  6653   0000D4  0040               	dw	ivt0x8_undefint shr (0+2)
  6654                           
  6655                           ; Vector 103 : DMA5A
  6656   0000D6  0040               	dw	ivt0x8_undefint shr (0+2)
  6657                           
  6658                           ; Vector 104 : U5RX
  6659   0000D8  0040               	dw	ivt0x8_undefint shr (0+2)
  6660                           
  6661                           ; Vector 105 : U5TX
  6662   0000DA  0040               	dw	ivt0x8_undefint shr (0+2)
  6663                           
  6664                           ; Vector 106 : U5E
  6665   0000DC  0040               	dw	ivt0x8_undefint shr (0+2)
  6666                           
  6667                           ; Vector 107 : U5
  6668   0000DE  0040               	dw	ivt0x8_undefint shr (0+2)
  6669                           
  6670                           ; Vector 108 : DMA6SCNT
  6671   0000E0  0040               	dw	ivt0x8_undefint shr (0+2)
  6672                           
  6673                           ; Vector 109 : DMA6DCNT
  6674   0000E2  0040               	dw	ivt0x8_undefint shr (0+2)
  6675                           
  6676                           ; Vector 110 : DMA6OR
  6677   0000E4  0040               	dw	ivt0x8_undefint shr (0+2)
  6678                           
  6679                           ; Vector 111 : DMA6A
  6680   0000E6  0040               	dw	ivt0x8_undefint shr (0+2)
  6681                           
  6682                           ; Vector 112 : Undefined
  6683   0000E8  0040               	dw	ivt0x8_undefint shr (0+2)
  6684                           
  6685                           ; Vector 113 : CLC7
  6686   0000EA  0040               	dw	ivt0x8_undefint shr (0+2)
  6687                           
  6688                           ; Vector 114 : CMP2
  6689   0000EC  0040               	dw	ivt0x8_undefint shr (0+2)
  6690                           
  6691                           ; Vector 115 : NCO3
  6692   0000EE  0040               	dw	ivt0x8_undefint shr (0+2)
  6693                           
  6694                           ; Vector 116 : Undefined
  6695   0000F0  0040               	dw	ivt0x8_undefint shr (0+2)
  6696                           
  6697                           ; Vector 117 : Undefined
  6698   0000F2  0040               	dw	ivt0x8_undefint shr (0+2)
  6699                           
  6700                           ; Vector 118 : Undefined
  6701   0000F4  0040               	dw	ivt0x8_undefint shr (0+2)
  6702                           
  6703                           ; Vector 119 : Undefined
  6704   0000F6  0040               	dw	ivt0x8_undefint shr (0+2)
  6705                           
  6706                           ; Vector 120 : NVM
  6707   0000F8  0040               	dw	ivt0x8_undefint shr (0+2)
  6708                           
  6709                           ; Vector 121 : CLC8
  6710   0000FA  0040               	dw	ivt0x8_undefint shr (0+2)
  6711                           
  6712                           ; Vector 122 : CRC
  6713   0000FC  0040               	dw	ivt0x8_undefint shr (0+2)
  6714                           
  6715                           ; Vector 123 : TMR6
  6716   0000FE  0040               	dw	ivt0x8_undefint shr (0+2)
  6717   000100                     ivt0x8_undefint:
  6718                           	callstack 0
  6719   000100  00FF               	reset	
  6720                           
  6721                           	psect	rparam
  6722   000000                     
  6723                           	psect	idloc
  6724                           
  6725                           ;Config register IDLOC0 @ 0x200000
  6726                           ;	unspecified, using default values
  6727   200000                     	org	2097152
  6728   200000  0FFF               	dw	4095
  6729                           
  6730                           ;Config register IDLOC1 @ 0x200002
  6731                           ;	unspecified, using default values
  6732   200002                     	org	2097154
  6733   200002  0FFF               	dw	4095
  6734                           
  6735                           ;Config register IDLOC2 @ 0x200004
  6736                           ;	unspecified, using default values
  6737   200004                     	org	2097156
  6738   200004  0FFF               	dw	4095
  6739                           
  6740                           ;Config register IDLOC3 @ 0x200006
  6741                           ;	unspecified, using default values
  6742   200006                     	org	2097158
  6743   200006  0FFF               	dw	4095
  6744                           
  6745                           ;Config register IDLOC4 @ 0x200008
  6746                           ;	unspecified, using default values
  6747   200008                     	org	2097160
  6748   200008  0FFF               	dw	4095
  6749                           
  6750                           ;Config register IDLOC5 @ 0x20000A
  6751                           ;	unspecified, using default values
  6752   20000A                     	org	2097162
  6753   20000A  0FFF               	dw	4095
  6754                           
  6755                           ;Config register IDLOC6 @ 0x20000C
  6756                           ;	unspecified, using default values
  6757   20000C                     	org	2097164
  6758   20000C  0FFF               	dw	4095
  6759                           
  6760                           ;Config register IDLOC7 @ 0x20000E
  6761                           ;	unspecified, using default values
  6762   20000E                     	org	2097166
  6763   20000E  0FFF               	dw	4095
  6764                           
  6765                           ;Config register IDLOC8 @ 0x200010
  6766                           ;	unspecified, using default values
  6767   200010                     	org	2097168
  6768   200010  0FFF               	dw	4095
  6769                           
  6770                           ;Config register IDLOC9 @ 0x200012
  6771                           ;	unspecified, using default values
  6772   200012                     	org	2097170
  6773   200012  0FFF               	dw	4095
  6774                           
  6775                           ;Config register IDLOC10 @ 0x200014
  6776                           ;	unspecified, using default values
  6777   200014                     	org	2097172
  6778   200014  0FFF               	dw	4095
  6779                           
  6780                           ;Config register IDLOC11 @ 0x200016
  6781                           ;	unspecified, using default values
  6782   200016                     	org	2097174
  6783   200016  0FFF               	dw	4095
  6784                           
  6785                           ;Config register IDLOC12 @ 0x200018
  6786                           ;	unspecified, using default values
  6787   200018                     	org	2097176
  6788   200018  0FFF               	dw	4095
  6789                           
  6790                           ;Config register IDLOC13 @ 0x20001A
  6791                           ;	unspecified, using default values
  6792   20001A                     	org	2097178
  6793   20001A  0FFF               	dw	4095
  6794                           
  6795                           ;Config register IDLOC14 @ 0x20001C
  6796                           ;	unspecified, using default values
  6797   20001C                     	org	2097180
  6798   20001C  0FFF               	dw	4095
  6799                           
  6800                           ;Config register IDLOC15 @ 0x20001E
  6801                           ;	unspecified, using default values
  6802   20001E                     	org	2097182
  6803   20001E  0FFF               	dw	4095
  6804                           
  6805                           ;Config register IDLOC16 @ 0x200020
  6806                           ;	unspecified, using default values
  6807   200020                     	org	2097184
  6808   200020  0FFF               	dw	4095
  6809                           
  6810                           ;Config register IDLOC17 @ 0x200022
  6811                           ;	unspecified, using default values
  6812   200022                     	org	2097186
  6813   200022  0FFF               	dw	4095
  6814                           
  6815                           ;Config register IDLOC18 @ 0x200024
  6816                           ;	unspecified, using default values
  6817   200024                     	org	2097188
  6818   200024  0FFF               	dw	4095
  6819                           
  6820                           ;Config register IDLOC19 @ 0x200026
  6821                           ;	unspecified, using default values
  6822   200026                     	org	2097190
  6823   200026  0FFF               	dw	4095
  6824                           
  6825                           ;Config register IDLOC20 @ 0x200028
  6826                           ;	unspecified, using default values
  6827   200028                     	org	2097192
  6828   200028  0FFF               	dw	4095
  6829                           
  6830                           ;Config register IDLOC21 @ 0x20002A
  6831                           ;	unspecified, using default values
  6832   20002A                     	org	2097194
  6833   20002A  0FFF               	dw	4095
  6834                           
  6835                           ;Config register IDLOC22 @ 0x20002C
  6836                           ;	unspecified, using default values
  6837   20002C                     	org	2097196
  6838   20002C  0FFF               	dw	4095
  6839                           
  6840                           ;Config register IDLOC23 @ 0x20002E
  6841                           ;	unspecified, using default values
  6842   20002E                     	org	2097198
  6843   20002E  0FFF               	dw	4095
  6844                           
  6845                           ;Config register IDLOC24 @ 0x200030
  6846                           ;	unspecified, using default values
  6847   200030                     	org	2097200
  6848   200030  0FFF               	dw	4095
  6849                           
  6850                           ;Config register IDLOC25 @ 0x200032
  6851                           ;	unspecified, using default values
  6852   200032                     	org	2097202
  6853   200032  0FFF               	dw	4095
  6854                           
  6855                           ;Config register IDLOC26 @ 0x200034
  6856                           ;	unspecified, using default values
  6857   200034                     	org	2097204
  6858   200034  0FFF               	dw	4095
  6859                           
  6860                           ;Config register IDLOC27 @ 0x200036
  6861                           ;	unspecified, using default values
  6862   200036                     	org	2097206
  6863   200036  0FFF               	dw	4095
  6864                           
  6865                           ;Config register IDLOC28 @ 0x200038
  6866                           ;	unspecified, using default values
  6867   200038                     	org	2097208
  6868   200038  0FFF               	dw	4095
  6869                           
  6870                           ;Config register IDLOC29 @ 0x20003A
  6871                           ;	unspecified, using default values
  6872   20003A                     	org	2097210
  6873   20003A  0FFF               	dw	4095
  6874                           
  6875                           ;Config register IDLOC30 @ 0x20003C
  6876                           ;	unspecified, using default values
  6877   20003C                     	org	2097212
  6878   20003C  0FFF               	dw	4095
  6879                           
  6880                           ;Config register IDLOC31 @ 0x20003E
  6881                           ;	unspecified, using default values
  6882   20003E                     	org	2097214
  6883   20003E  0FFF               	dw	4095
  6884                           
  6885                           	psect	config
  6886                           
  6887                           ;Config register CONFIG1 @ 0x300000
  6888                           ;	External Oscillator Selection
  6889                           ;	FEXTOSC = ECH, EC (external clock) above 8 MHz
  6890                           ;	Reset Oscillator Selection
  6891                           ;	RSTOSC = HFINTOSC_1MHZ, HFINTOSC with HFFRQ = 4 MHz and CDIV = 4:1
  6892   300000                     	org	3145728
  6893   300000  EF                 	db	239
  6894                           
  6895                           ;Config register CONFIG2 @ 0x300001
  6896                           ;	Clock out Enable bit
  6897                           ;	CLKOUTEN = OFF, CLKOUT function is disabled
  6898                           ;	PRLOCKED One-Way Set Enable bit
  6899                           ;	PR1WAY = ON, PRLOCKED bit can be cleared and set only once
  6900                           ;	Clock Switch Enable bit
  6901                           ;	CSWEN = ON, Writing to NOSC and NDIV is allowed
  6902                           ;	Fail-Safe Clock Monitor Enable bit
  6903                           ;	FCMEN = ON, Fail-Safe Clock Monitor enabled
  6904   300001                     	org	3145729
  6905   300001  FF                 	db	255
  6906                           
  6907                           ;Config register CONFIG3 @ 0x300002
  6908                           ;	MCLR Enable bit
  6909                           ;	MCLRE = EXTMCLR, If LVP = 0, MCLR pin is MCLR; If LVP = 1, RE3 pin function is MCLR
  6910                           ;	Power-up timer selection bits
  6911                           ;	PWRTS = PWRT_OFF, PWRT is disabled
  6912                           ;	Multi-vector enable bit
  6913                           ;	MVECEN = ON, Multi-vector enabled, Vector table used for interrupts
  6914                           ;	IVTLOCK bit One-way set enable bit
  6915                           ;	IVT1WAY = ON, IVTLOCKED bit can be cleared and set only once
  6916                           ;	Low Power BOR Enable bit
  6917                           ;	LPBOREN = OFF, Low-Power BOR disabled
  6918                           ;	Brown-out Reset Enable bits
  6919                           ;	BOREN = SBORDIS, Brown-out Reset enabled , SBOREN bit is ignored
  6920   300002                     	org	3145730
  6921   300002  FF                 	db	255
  6922                           
  6923                           ;Config register CONFIG4 @ 0x300003
  6924                           ;	Brown-out Reset Voltage Selection bits
  6925                           ;	BORV = VBOR_1P9, Brown-out Reset Voltage (VBOR) set to 1.9V
  6926                           ;	ZCD Disable bit
  6927                           ;	ZCD = OFF, ZCD module is disabled. ZCD can be enabled by setting the ZCDSEN bit of ZCD
      +                          CON
  6928                           ;	PPSLOCK bit One-Way Set Enable bit
  6929                           ;	PPS1WAY = ON, PPSLOCKED bit can be cleared and set only once; PPS registers remain loc
      +                          ked after one clear/set cycle
  6930                           ;	Stack Full/Underflow Reset Enable bit
  6931                           ;	STVREN = ON, Stack full/underflow will cause Reset
  6932                           ;	Low Voltage Programming Enable bit
  6933                           ;	LVP = ON, Low voltage programming enabled. MCLR/VPP pin function is MCLR. MCLRE config
      +                          uration bit is ignored
  6934                           ;	Extended Instruction Set Enable bit
  6935                           ;	XINST = OFF, Extended Instruction Set and Indexed Addressing Mode disabled
  6936   300003                     	org	3145731
  6937   300003  FF                 	db	255
  6938                           
  6939                           ;Config register CONFIG5 @ 0x300004
  6940                           ;	WDT Period selection bits
  6941                           ;	WDTCPS = WDTCPS_31, Divider ratio 1:65536; software control of WDTPS
  6942                           ;	WDT operating mode
  6943                           ;	WDTE = OFF, WDT Disabled; SWDTEN is ignored
  6944   300004                     	org	3145732
  6945   300004  9F                 	db	159
  6946                           
  6947                           ;Config register CONFIG6 @ 0x300005
  6948                           ;	WDT Window Select bits
  6949                           ;	WDTCWS = WDTCWS_7, window always open (100%); software control; keyed access not requi
      +                          red
  6950                           ;	WDT input clock selector
  6951                           ;	WDTCCS = SC, Software Control
  6952   300005                     	org	3145733
  6953   300005  FF                 	db	255
  6954                           
  6955                           ;Config register CONFIG7 @ 0x300006
  6956                           ;	Boot Block Size selection bits
  6957                           ;	BBSIZE = BBSIZE_512, Boot Block size is 512 words
  6958                           ;	Boot Block enable bit
  6959                           ;	BBEN = OFF, Boot block disabled
  6960                           ;	Storage Area Flash enable bit
  6961                           ;	SAFEN = OFF, SAF disabled
  6962                           ;	Background Debugger
  6963                           ;	DEBUG = OFF, Background Debugger disabled
  6964   300006                     	org	3145734
  6965   300006  FF                 	db	255
  6966                           
  6967                           ;Config register CONFIG8 @ 0x300007
  6968                           ;	Boot Block Write Protection bit
  6969                           ;	WRTB = OFF, Boot Block not Write protected
  6970                           ;	Configuration Register Write Protection bit
  6971                           ;	WRTC = OFF, Configuration registers not Write protected
  6972                           ;	Data EEPROM Write Protection bit
  6973                           ;	WRTD = OFF, Data EEPROM not Write protected
  6974                           ;	SAF Write protection bit
  6975                           ;	WRTSAF = OFF, SAF not Write Protected
  6976                           ;	Application Block write protection bit
  6977                           ;	WRTAPP = OFF, Application Block not write protected
  6978   300007                     	org	3145735
  6979   300007  FF                 	db	255
  6980                           
  6981                           ; Padding undefined space
  6982   300008                     	org	3145736
  6983   300008  FF                 	db	255
  6984                           
  6985                           ;Config register CONFIG10 @ 0x300009
  6986                           ;	PFM and Data EEPROM Code Protection bit
  6987                           ;	CP = OFF, PFM and Data EEPROM code protection disabled
  6988   300009                     	org	3145737
  6989   300009  FF                 	db	255
  6990                           tosu	equ	0x4FF
  6991                           tosh	equ	0x4FE
  6992                           tosl	equ	0x4FD
  6993                           stkptr	equ	0x4FC
  6994                           pclatu	equ	0x4FB
  6995                           pclath	equ	0x4FA
  6996                           pcl	equ	0x4F9
  6997                           tblptru	equ	0x4F8
  6998                           tblptrh	equ	0x4F7
  6999                           tblptrl	equ	0x4F6
  7000                           tablat	equ	0x4F5
  7001                           prodh	equ	0x4F4
  7002                           prodl	equ	0x4F3
  7003                           indf0	equ	0x4EF
  7004                           postinc0	equ	0x4EE
  7005                           postdec0	equ	0x4ED
  7006                           preinc0	equ	0x4EC
  7007                           plusw0	equ	0x4EB
  7008                           fsr0h	equ	0x4EA
  7009                           fsr0l	equ	0x4E9
  7010                           wreg	equ	0x4E8
  7011                           indf1	equ	0x4E7
  7012                           postinc1	equ	0x4E6
  7013                           postdec1	equ	0x4E5
  7014                           preinc1	equ	0x4E4
  7015                           plusw1	equ	0x4E3
  7016                           fsr1h	equ	0x4E2
  7017                           fsr1l	equ	0x4E1
  7018                           bsr	equ	0x4E0
  7019                           indf2	equ	0x4DF
  7020                           postinc2	equ	0x4DE
  7021                           postdec2	equ	0x4DD
  7022                           preinc2	equ	0x4DC
  7023                           plusw2	equ	0x4DB
  7024                           fsr2h	equ	0x4DA
  7025                           fsr2l	equ	0x4D9
  7026                           status	equ	0x4D8

Data Sizes:
    Strings     22
    Constant    0
    Data        0
    BSS         93
    Persistent  0
    Stack       0

Auto Spaces:
    Space          Size  Autos    Used
    COMRAM           95     92      94
    BANK5           160     88      99
    BANK6           256      0      80
    BANK7           256      0       0
    BANK8           256      0       0
    BANK9           256      0       0
    BANK10          256      0       0
    BANK11          256      0       0
    BANK12          256      0       0
    BANK13          256      0       0
    BANK14          256      0       0
    BANK15          256      0       0
    BANK16          256      0       0
    BANK17          256      0       0
    BANK18          256      0       0
    BANK19          256      0       0
    BANK20          256      0       0
    BANK21          256      0       0
    BANK22          256      0       0
    BANK23          256      0       0
    BANK24          256      0       0
    BANK25          256      0       0
    BANK26          256      0       0
    BANK27          256      0       0
    BANK28          256      0       0
    BANK29          256      0       0
    BANK30          256      0       0
    BANK31          256      0       0
    BANK32          256      0       0
    BANK33          256      0       0
    BANK34          256      0       0
    BANK35          256      0       0
    BANK36          256      0       0

Pointer List with Targets:

    strcpy@dest	PTR unsigned char  size(2) Largest target is 80
		 -> dbuf(BANK6[80]), 

    strcpy@d	PTR unsigned char  size(2) Largest target is 80
		 -> dbuf(BANK6[80]), 

    strcpy@src	PTR const unsigned char  size(2) Largest target is 4
		 -> STR_5(CODE[4]), STR_2(CODE[4]), 

    strcpy@s	PTR const unsigned char  size(2) Largest target is 4
		 -> STR_5(CODE[4]), STR_2(CODE[4]), 

    fputs@s	PTR const unsigned char  size(2) Largest target is 80
		 -> dbuf(BANK6[80]), 

    fputs@fp	PTR struct _IO_FILE size(2) Largest target is 11
		 -> sprintf@f(COMRAM[11]), 

    fputc@fp...source	PTR const unsigned char  size(2) Largest target is 0

    fputc@fp...buffer	PTR unsigned char  size(2) Largest target is 0

    fputc@fp	PTR struct _IO_FILE size(2) Largest target is 11
		 -> sprintf@f(COMRAM[11]), 

    memcpy@d1	PTR void  size(2) Largest target is 80
		 -> dbuf(BANK6[80]), 

    memcpy@d	PTR unsigned char  size(2) Largest target is 80
		 -> dbuf(BANK6[80]), 

    memcpy@s1	PTR const void  size(2) Largest target is 80
		 -> dbuf(BANK6[80]), 

    memcpy@s	PTR const unsigned char  size(2) Largest target is 80
		 -> dbuf(BANK6[80]), 

    vfprintf@ap	PTR PTR void  size(2) Largest target is 2
		 -> sprintf@ap(COMRAM[2]), 

    vfprintf@fp	PTR struct _IO_FILE size(2) Largest target is 11
		 -> sprintf@f(COMRAM[11]), 

    vfprintf@fmt	PTR const unsigned char  size(2) Largest target is 14
		 -> STR_1(CODE[14]), 

    vfprintf@cfmt	PTR unsigned char  size(2) Largest target is 14
		 -> STR_1(CODE[14]), 

    vfpfcnvrt@fp	PTR struct _IO_FILE size(2) Largest target is 11
		 -> sprintf@f(COMRAM[11]), 

    vfpfcnvrt@ap	PTR PTR void  size(2) Largest target is 2
		 -> sprintf@ap(COMRAM[2]), 

    vfpfcnvrt@cp	PTR unsigned char  size(2) Largest target is 14
		 -> STR_1(CODE[14]), 

    vfpfcnvrt@fmt	PTR PTR unsigned char  size(2) Largest target is 2
		 -> vfprintf@cfmt(COMRAM[2]), 

    S1203$vp	PTR void  size(2) Largest target is 0

    convarg.vp	PTR void  size(2) Largest target is 0

    sp__memcpy	PTR void  size(2) Largest target is 80
		 -> dbuf(BANK6[80]), 

    efgtoa@fp	PTR struct _IO_FILE size(2) Largest target is 11
		 -> sprintf@f(COMRAM[11]), 

    sp__strcpy	PTR unsigned char  size(2) Largest target is 80
		 -> dbuf(BANK6[80]), 

    pad@buf	PTR unsigned char  size(2) Largest target is 80
		 -> dbuf(BANK6[80]), 

    pad@fp	PTR struct _IO_FILE size(2) Largest target is 11
		 -> sprintf@f(COMRAM[11]), 

    sprintf@fmt	PTR const unsigned char  size(2) Largest target is 14
		 -> STR_1(CODE[14]), 

    sprintf@s	PTR unsigned char  size(2) Largest target is 18
		 -> ADC_ISR@str_out(BANK5[18]), 

    sprintf@ap	PTR void [1] size(2) Largest target is 2
		 -> ?_sprintf(BANK5[2]), 

    S1124$source	PTR const unsigned char  size(2) Largest target is 0

    f...source	PTR const unsigned char  size(2) Largest target is 0

    S1124$buffer	PTR unsigned char  size(2) Largest target is 0

    f...buffer	PTR unsigned char  size(2) Largest target is 0


Critical Paths under _main in COMRAM

    None.

Critical Paths under _ADC_ISR in COMRAM

    _ADC_ISR->_sprintf
    _sprintf->_vfprintf
    _vfprintf->_vfpfcnvrt
    _vfpfcnvrt->_efgtoa
    _efgtoa->___flge
    _pad->_fputs
    _fputs->_fputc
    _floorf->___fldiv
    ___flsub->___flmul
    ___flmul->___xxtofl
    ___flge->___flmul

Critical Paths under _main in BANK5

    None.

Critical Paths under _ADC_ISR in BANK5

    _ADC_ISR->_sprintf
    _sprintf->_vfprintf
    _vfprintf->_vfpfcnvrt
    _vfpfcnvrt->_efgtoa

Critical Paths under _main in BANK6

    None.

Critical Paths under _ADC_ISR in BANK6

    None.

Critical Paths under _main in BANK7

    None.

Critical Paths under _ADC_ISR in BANK7

    None.

Critical Paths under _main in BANK8

    None.

Critical Paths under _ADC_ISR in BANK8

    None.

Critical Paths under _main in BANK9

    None.

Critical Paths under _ADC_ISR in BANK9

    None.

Critical Paths under _main in BANK10

    None.

Critical Paths under _ADC_ISR in BANK10

    None.

Critical Paths under _main in BANK11

    None.

Critical Paths under _ADC_ISR in BANK11

    None.

Critical Paths under _main in BANK12

    None.

Critical Paths under _ADC_ISR in BANK12

    None.

Critical Paths under _main in BANK13

    None.

Critical Paths under _ADC_ISR in BANK13

    None.

Critical Paths under _main in BANK14

    None.

Critical Paths under _ADC_ISR in BANK14

    None.

Critical Paths under _main in BANK15

    None.

Critical Paths under _ADC_ISR in BANK15

    None.

Critical Paths under _main in BANK16

    None.

Critical Paths under _ADC_ISR in BANK16

    None.

Critical Paths under _main in BANK17

    None.

Critical Paths under _ADC_ISR in BANK17

    None.

Critical Paths under _main in BANK18

    None.

Critical Paths under _ADC_ISR in BANK18

    None.

Critical Paths under _main in BANK19

    None.

Critical Paths under _ADC_ISR in BANK19

    None.

Critical Paths under _main in BANK20

    None.

Critical Paths under _ADC_ISR in BANK20

    None.

Critical Paths under _main in BANK21

    None.

Critical Paths under _ADC_ISR in BANK21

    None.

Critical Paths under _main in BANK22

    None.

Critical Paths under _ADC_ISR in BANK22

    None.

Critical Paths under _main in BANK23

    None.

Critical Paths under _ADC_ISR in BANK23

    None.

Critical Paths under _main in BANK24

    None.

Critical Paths under _ADC_ISR in BANK24

    None.

Critical Paths under _main in BANK25

    None.

Critical Paths under _ADC_ISR in BANK25

    None.

Critical Paths under _main in BANK26

    None.

Critical Paths under _ADC_ISR in BANK26

    None.

Critical Paths under _main in BANK27

    None.

Critical Paths under _ADC_ISR in BANK27

    None.

Critical Paths under _main in BANK28

    None.

Critical Paths under _ADC_ISR in BANK28

    None.

Critical Paths under _main in BANK29

    None.

Critical Paths under _ADC_ISR in BANK29

    None.

Critical Paths under _main in BANK30

    None.

Critical Paths under _ADC_ISR in BANK30

    None.

Critical Paths under _main in BANK31

    None.

Critical Paths under _ADC_ISR in BANK31

    None.

Critical Paths under _main in BANK32

    None.

Critical Paths under _ADC_ISR in BANK32

    None.

Critical Paths under _main in BANK33

    None.

Critical Paths under _ADC_ISR in BANK33

    None.

Critical Paths under _main in BANK34

    None.

Critical Paths under _ADC_ISR in BANK34

    None.

Critical Paths under _main in BANK35

    None.

Critical Paths under _ADC_ISR in BANK35

    None.

Critical Paths under _main in BANK36

    None.

Critical Paths under _ADC_ISR in BANK36

    None.

Call Graph Tables:

 ---------------------------------------------------------------------------------
 (Depth) Function   	        Calls       Base Space   Used Autos Params    Refs
 ---------------------------------------------------------------------------------
 (0) _main                                                 0     0      0       0
 ---------------------------------------------------------------------------------
 Estimated maximum stack depth 0
 ---------------------------------------------------------------------------------
 (Depth) Function   	        Calls       Base Space   Used Autos Params    Refs
 ---------------------------------------------------------------------------------
 (1) _ADC_ISR                                             28    28      0   23965
                                             88 COMRAM     4     4      0
                                             64 BANK5     24    24      0
                            ___flmul
                           ___xxtofl
                            _sprintf
 ---------------------------------------------------------------------------------
 (2) _sprintf                                             23    15      8   20771
                                             75 COMRAM    13    13      0
                                             56 BANK5      8     0      8
                           _vfprintf
 ---------------------------------------------------------------------------------
 (3) _vfprintf                                             8     2      6   20418
                                             73 COMRAM     2     2      0
                                             50 BANK5      6     0      6
                          _vfpfcnvrt
 ---------------------------------------------------------------------------------
 (4) _vfpfcnvrt                                           23    17      6   20068
                                             60 COMRAM    13    13      0
                                             44 BANK5      6     0      6
                             _efgtoa
                              _fputc
 ---------------------------------------------------------------------------------
 (5) _efgtoa                                              54    47      7   18733
                                             51 COMRAM     9     2      7
                                              0 BANK5     44    44      0
                            ___fladd
                            ___fldiv
                             ___fleq
                             ___flge
                            ___flmul
                            ___flneg
                            ___flsub
                            ___fltol
                      ___fpclassifyf
                             _floorf
                               _labs
                             _memcpy
                                _pad
                             _strcpy
 ---------------------------------------------------------------------------------
 (6) _strcpy                                               8     4      4     400
                                              0 COMRAM     8     4      4
 ---------------------------------------------------------------------------------
 (6) _pad                                                 11     5      6    2455
                                             16 COMRAM    11     5      6
                              _fputc
                              _fputs
 ---------------------------------------------------------------------------------
 (7) _fputs                                                7     3      4     931
                                              9 COMRAM     7     3      4
                              _fputc
 ---------------------------------------------------------------------------------
 (5) _fputc                                                9     5      4     682
                                              0 COMRAM     9     5      4
                              _putch
 ---------------------------------------------------------------------------------
 (6) _putch                                                1     1      0       0
 ---------------------------------------------------------------------------------
 (6) _memcpy                                              11     5      6     371
                                              0 COMRAM    11     5      6
 ---------------------------------------------------------------------------------
 (6) _labs                                                 8     4      4     294
                                              0 COMRAM     8     4      4
 ---------------------------------------------------------------------------------
 (6) _floorf                                              20    16      4     490
                                             25 COMRAM    20    16      4
                            ___fldiv (ARG)
 ---------------------------------------------------------------------------------
 (6) ___fpclassifyf                                       14    10      4     287
                                              0 COMRAM    14    10      4
 ---------------------------------------------------------------------------------
 (6) ___fltol                                             10     6      4     457
                                              0 COMRAM    10     6      4
 ---------------------------------------------------------------------------------
 (6) ___flsub                                              8     0      8    2889
                                             39 COMRAM     8     0      8
                            ___fladd
                            ___flmul (ARG)
 ---------------------------------------------------------------------------------
 (7) ___fladd                                             16     8      8    2414
                                              0 COMRAM    16     8      8
 ---------------------------------------------------------------------------------
 (6) ___flneg                                              4     0      4     121
                                              0 COMRAM     4     0      4
 ---------------------------------------------------------------------------------
 (6) ___flmul                                             25    17      8    2656
                                             14 COMRAM    25    17      8
                           ___xxtofl (ARG)
 ---------------------------------------------------------------------------------
 (6) ___flge                                              12     4      8     790
                                             39 COMRAM    12     4      8
                            ___flmul (ARG)
 ---------------------------------------------------------------------------------
 (6) ___fleq                                              12     4      8     646
                                              0 COMRAM    12     4      8
 ---------------------------------------------------------------------------------
 (6) ___fldiv                                             25    17      8    2007
                                              0 COMRAM    25    17      8
 ---------------------------------------------------------------------------------
 (2) ___xxtofl                                            14    10      4     398
                                              0 COMRAM    14    10      4
 ---------------------------------------------------------------------------------
 Estimated maximum stack depth 7
 ---------------------------------------------------------------------------------

 Call Graph Graphs:

 _main (ROOT)

 _ADC_ISR (ROOT)
   ___flmul
     ___xxtofl (ARG)
   ___xxtofl
   _sprintf
     _vfprintf
       _vfpfcnvrt
         _efgtoa
           ___fladd
           ___fldiv
           ___fleq
           ___flge
             ___flmul (ARG)
           ___flmul
           ___flneg
           ___flsub
             ___fladd
             ___flmul (ARG)
           ___fltol
           ___fpclassifyf
           _floorf
             ___fldiv (ARG)
           _labs
           _memcpy
           _pad
             _fputc
               _putch
             _fputs
               _fputc
           _strcpy
         _fputc

 Address spaces:
Name               Size   Autos  Total    Cost      Usage
BIGRAM            1FFF      0       0      69        0.0%
EEDATA             400      0       0       0        0.0%
BITBIGSFRllllll    229      0       0      91        0.0%
BITBIGSFR_1        100      0       0      68        0.0%
BITBANK36          100      0       0      66        0.0%
BANK36             100      0       0      67        0.0%
BITBANK35          100      0       0      64        0.0%
BANK35             100      0       0      65        0.0%
BITBANK34          100      0       0      62        0.0%
BANK34             100      0       0      63        0.0%
BITBANK33          100      0       0      60        0.0%
BANK33             100      0       0      61        0.0%
BITBANK32          100      0       0      58        0.0%
BANK32             100      0       0      59        0.0%
BITBANK31          100      0       0      56        0.0%
BANK31             100      0       0      57        0.0%
BITBANK30          100      0       0      54        0.0%
BANK30             100      0       0      55        0.0%
BITBANK29          100      0       0      52        0.0%
BANK29             100      0       0      53        0.0%
BITBANK28          100      0       0      50        0.0%
BANK28             100      0       0      51        0.0%
BITBANK27          100      0       0      48        0.0%
BANK27             100      0       0      49        0.0%
BITBANK26          100      0       0      46        0.0%
BANK26             100      0       0      47        0.0%
BITBANK25          100      0       0      44        0.0%
BANK25             100      0       0      45        0.0%
BITBANK24          100      0       0      42        0.0%
BANK24             100      0       0      43        0.0%
BITBANK23          100      0       0      40        0.0%
BANK23             100      0       0      41        0.0%
BITBANK22          100      0       0      38        0.0%
BANK22             100      0       0      39        0.0%
BITBANK21          100      0       0      36        0.0%
BANK21             100      0       0      37        0.0%
BITBANK20          100      0       0      34        0.0%
BANK20             100      0       0      35        0.0%
BITBANK19          100      0       0      32        0.0%
BANK19             100      0       0      33        0.0%
BITBANK18          100      0       0      30        0.0%
BANK18             100      0       0      31        0.0%
BITBANK17          100      0       0      28        0.0%
BANK17             100      0       0      29        0.0%
BITBANK16          100      0       0      26        0.0%
BANK16             100      0       0      27        0.0%
BITBANK15          100      0       0      24        0.0%
BANK15             100      0       0      25        0.0%
BITBANK14          100      0       0      22        0.0%
BANK14             100      0       0      23        0.0%
BITBANK13          100      0       0      20        0.0%
BANK13             100      0       0      21        0.0%
BITBANK12          100      0       0      18        0.0%
BANK12             100      0       0      19        0.0%
BITBANK11          100      0       0      16        0.0%
BANK11             100      0       0      17        0.0%
BITBANK10          100      0       0      14        0.0%
BANK10             100      0       0      15        0.0%
BITBANK9           100      0       0      12        0.0%
BANK9              100      0       0      13        0.0%
BITBANK8           100      0       0      10        0.0%
BANK8              100      0       0      11        0.0%
BITBANK7           100      0       0       8        0.0%
BANK7              100      0       0       9        0.0%
BITBANK6           100      0       0       6        0.0%
BANK6              100      0      50       7       31.2%
BITBIGSFRllhhl      B2      0       0      86        0.0%
BITBANK5            A0      0       0       4        0.0%
BANK5               A0     58      63       5       61.9%
BITBIGSFRllhhh      87      0       0      85        0.0%
BITBIGSFRlhlhhh     76      0       0      77        0.0%
BITCOMRAM           5F      0       0       0        0.0%
COMRAM              5F     5C      5E       1       98.9%
BITBIGSFRlllllh     48      0       0      90        0.0%
BITBIGSFRllllh      30      0       0      89        0.0%
BITBIGSFRhhhhh      29      0       0      70        0.0%
BITBIGSFRlhlhhl     17      0       0      78        0.0%
BITBIGSFRlhh        10      0       0      75        0.0%
BITBIGSFRlhlhhh      F      0       0      76        0.0%
BITBIGSFRlhlhl       F      0       0      79        0.0%
BITBIGSFRhhhhl       A      0       0      71        0.0%
BITBIGSFRlllh        7      0       0      88        0.0%
BITBIGSFRlhllh       6      0       0      80        0.0%
BITBIGSFRhl          5      0       0      74        0.0%
BITBIGSFRlhlllh      2      0       0      82        0.0%
BITBIGSFRhhhl        2      0       0      72        0.0%
BITBIGSFRlhlllh      1      0       0      81        0.0%
BITBIGSFRlhllll      1      0       0      83        0.0%
BITBIGSFRhhl         1      0       0      73        0.0%
BITBIGSFRllhl        1      0       0      87        0.0%
BITBIGSFRlhllll      1      0       0      84        0.0%
BIGSFR_1             0      0       0     200        0.0%
BIGSFR               0      0       0     200        0.0%
BITSFR_6             0      0       0     200        0.0%
SFR_6                0      0       0     200        0.0%
BITSFR_5             0      0       0     200        0.0%
SFR_5                0      0       0     200        0.0%
BITSFR_4             0      0       0     200        0.0%
SFR_4                0      0       0     200        0.0%
BITSFR_3             0      0       0     200        0.0%
SFR_3                0      0       0     200        0.0%
BITSFR_2             0      0       0     200        0.0%
SFR_2                0      0       0     200        0.0%
BITSFR_1             0      0       0     200        0.0%
SFR_1                0      0       0     200        0.0%
BITSFR               0      0       0     200        0.0%
SFR                  0      0       0     200        0.0%
STACK                0      0       0       2        0.0%
NULL                 0      0       0       0        0.0%
ABS                  0      0     111      92        0.0%
DATA                 0      0     111       3        0.0%
CODE                 0      0       0       0        0.0%


Microchip Technology PIC18 Macro Assembler V2.40 build 20220703182018 
Symbol Table                                                                                   Tue Nov 15 21:02:45 2022

           ___fldiv@aexp 0519             ___fldiv@bexp 0518             ___fldiv@sign 0511  
                     l68 4866                       l69 4866                      _pad 486E  
        __end_of_ADC_ISR 467C                      wreg 0004E8             ___flmul@aexp 0520  
           ___flmul@bexp 0521             ___flmul@sign 051B             ___flmul@temp 0526  
           ___flmul@prod 0522             ___fltol@exp1 050A                     l3200 485C  
                   l3202 485E                     l3204 4860                     l3206 4862  
                   l3208 4864                     l3180 47FE                     l3190 481A  
                   l3182 4800                     l3192 4832                     l3184 4814  
                   l3176 47F0                     l3194 4834                     l3186 4816  
                   l3178 47F6                     l3196 4836                     l3188 4818  
                   l3198 4838                     ?_pad 0511                     STR_1 2601  
                   STR_2 260F                     STR_5 2613                     _LATC 0004C0  
                   i2l62 4662                     i2l63 466A                     _dbuf 0600  
                   _labs 48E8                     _main 47F0                     _prec 055D  
                   pad@i 0518                     pad@p 0515                     fsr1h 0004E2  
                   fsr2h 0004DA                     indf2 0004DF                     fsr1l 0004E1  
                   pad@w 051A                     fsr2l 0004D9            ___fpclassifyf 4498  
                   prodh 0004F4                     prodl 0004F3                     start 0102  
        ___fldiv@new_exp 0512             ___param_bank 000000                    ??_pad 0517  
          ___fltol@sign1 0509                    ?_labs 0501                    _ADACQ 0003EE  
        __end_of___fladd 34D4                    ?_main 0501          __end_of___fldiv 3C98  
        __end_of___flneg 4B4C                    _ADPRE 0003F1          __end_of___flmul 38FE  
        __end_of___flsub 4A8C          __end_of___fltol 4394                    _U1BRG 0002AE  
                  _U1TXB 0002A3                    i2l333 47EE                    i2l344 4496  
                  i2l602 3202                    i2l339 4450                    i2l611 34D2  
                  i2l603 31F0                    i2l371 4392                    i2l348 4B4A  
                  i2l604 31B6                    i2l800 29AA                    i2l705 38BE  
                  i2l802 27F0                    i2l619 331C                    i2l732 428C  
                  i2l628 33EC                    i2l644 4A8A                    i2l661 3ABA  
                  i2l629 33DA                    i2l901 4A44                    i2l670 3BA2  
                  i2l830 2DF4                    i2l743 4224                    i2l736 41C8  
                  i2l656 3C96                    i2l752 49F4                    i2l729 4130  
                  i2l913 4744                    i2l921 4B12                    i2l658 3AF6  
                  i2l930 4ACE                    i2l667 3B3C                    i2l692 38FC  
                  i2l924 4B7C                    i2l669 3BB4                    i2l782 4890  
                  i2l695 378E                    i2l688 3598                    i2l864 49A2  
                  i2l697 3806                    i2l881 40D8                    i2l857 3EC6  
                  i2l698 37F4                    i2l874 4594                    i2l786 48E6  
                  i2l884 401C                    i2l892 493C                    i2l797 3012  
                  i2l895 494C             vfpfcnvrt@fmt 058E                    _TRISC 0004C8  
                  _flags 05C2                    _fputc 467C                    _fputs 4AD0  
                  labs@a 0501                    pad@fp 0511                    _width 05C0  
                  _putch 4B7C                    tablat 0004F5                    status 0004D8  
        __end_of_sprintf 49F6           ?___fpclassifyf 0501          __initialization 4B4C  
           __end_of_labs 494E             __end_of_main 486E                ??_ADC_ISR 0559  
                 ??_labs 0505                   ??_main 0000            __activetblptr 000003  
                 ?_fputc 0501                   ?_fputs 050A                   _ADRESH 0003EB  
                 ?_putch 0501                   _ANSELC 000410                   _ANSELF 000428  
                 _RF0PPS 000229                   i2l2110 467C                   i2l2200 3150  
                 i2l2120 46FE                   i2l2112 468E                   i2l3000 2FF2  
                 i2l2210 31AE                   i2l2202 3154                   i2l2130 3030  
                 i2l2114 46A0                   i2l3010 3CDC                   i2l2300 3450  
                 i2l2220 31E4                   i2l2212 31C4                   i2l2204 3158  
                 i2l2132 3040                   i2l2140 306A                   i2l2124 3014  
                 i2l2116 46AA                   i2l3020 3D16                   i2l3012 3CE0  
                 i2l3004 3C98                   i2l3100 49BC                   i2l3110 40EC  
                 i2l2310 3496                   i2l2302 3452                   i2l2230 3234  
                 i2l2222 31EE                   i2l2214 31D0                   i2l2206 3182  
                 i2l2150 309A                   i2l2142 307A                   i2l2134 3050  
                 i2l2126 3020                   i2l2118 46C8                   i2l3030 3DA8  
                 i2l3014 3CF0                   i2l3006 3CC0                   i2l3102 49C4  
                 i2l3120 416A                   i2l3112 40FA                   i2l2400 3A7E  
                 i2l2320 34C0                   i2l2312 34A4                   i2l2304 3462  
                 i2l2240 3270                   i2l2232 3244                   i2l2224 3210  
                 i2l2216 31D4                   i2l2208 319E                   i2l2160 30DA  
                 i2l2152 30A8                   i2l2144 3080                   i2l2136 3060  
                 i2l2128 302E                   i2l3016 3D06                   i2l3024 3D1E  
                 i2l3008 3CCE                   i2l3104 49E2                   i2l3130 41BE  
                 i2l3122 4172                   i2l3114 4140                   i2l2410 3AC4  
                 i2l2402 3A86                   i2l2322 34C2                   i2l2314 34AA  
                 i2l2306 3472                   i2l2250 32B6                   i2l2242 327E  
                 i2l2234 3252                   i2l2226 3220                   i2l2218 31E2  
                 i2l2170 3114                   i2l2162 30DC                   i2l2154 30AA  
                 i2l2146 3092                   i2l2138 3062                   i2l2330 4AEE  
                 i2l3034 3DDC                   i2l3018 3D0E                   i2l3026 3D50  
                 i2l3050 3E9A                   i2l3140 4234                   i2l3132 41FA  
                 i2l3124 417E                   i2l3116 4156                   i2l3108 40DC  
                 i2l2420 3B1C                   i2l2412 3AE2                   i2l2404 3A96  
                 i2l2340 391A                   i2l2500 3572                   i2l2316 34AC  
                 i2l2308 3492                   i2l2260 3332                   i2l2252 32EA  
                 i2l2244 3280                   i2l2236 3260                   i2l2180 3128  
                 i2l2172 3118                   i2l2156 30BA                   i2l2164 30E4  
                 i2l2148 3094                   i2l2332 4AF2                   i2l3044 3E58  
                 i2l3036 3E06                   i2l3028 3D74                   i2l3150 427C  
                 i2l3142 4238                   i2l3134 4206                   i2l3126 41B0  
                 i2l2430 3B5A                   i2l2422 3B22                   i2l2414 3AE4  
                 i2l2406 3AAA                   i2l2342 392A                   i2l2350 3954  
                 i2l2334 38FE                   i2l2502 3582                   i2l2318 34B2  
                 i2l2270 336E                   i2l2262 3342                   i2l2254 32EC  
                 i2l2246 328A                   i2l2238 326C                   i2l2190 313C  
                 i2l2182 312C                   i2l2174 311C                   i2l2166 30F4  
                 i2l2158 30CA                   i2l2326 4AD0                   i2l3038 3E26  
                 i2l3046 3E88                   i2l3144 425C                   i2l3136 4214  
                 i2l3128 41B2                   i2l2440 3BC4                   i2l2432 3B5E  
                 i2l2424 3B2C                   i2l2416 3AF4                   i2l2408 3AB8  
                 i2l2360 3980                   i2l2352 3964                   i2l2344 393A  
                 i2l2336 390A                   i2l2520 3604                   i2l2512 35CC  
                 i2l2504 3588                   i2l2280 339A                   i2l2272 3370  
                 i2l2256 32FC                   i2l2248 3290                   i2l2192 3140  
                 i2l2184 3130                   i2l2176 3120                   i2l2168 3106  
                 i2l2328 4ADC                   i2l3160 4618                   i2l3146 426C  
                 i2l3138 4232                   i2l2450 3C26                   i2l2442 3BD0  
                 i2l2434 3B6C                   i2l2426 3B3A                   i2l2418 3B06  
                 i2l2362 3990                   i2l2370 39BA                   i2l2354 396A  
                 i2l2346 394A                   i2l2338 3918                   i2l2610 4774  
                 i2l2530 364E                   i2l2522 361C                   i2l2514 35D8  
                 i2l2506 35A8                   i2l2290 33D2                   i2l2274 337E  
                 i2l2266 3356                   i2l2282 339C                   i2l2258 330C  
                 i2l2194 3144                   i2l2186 3134                   i2l2178 3124  
                 i2l2602 4A46                   i2l3090 4978                   i2l3170 4638  
                 i2l3162 461C                   i2l3154 45A8                   i2l3148 427A  
                 i2l2460 3C84                   i2l2452 3C3C                   i2l2444 3BDE  
                 i2l2436 3B9A                   i2l2428 3B4C                   i2l2380 39FC  
                 i2l2372 39CA                   i2l2364 39A0                   i2l2356 3970  
                 i2l2348 394C                   i2l2620 47EC                   i2l2612 4784  
                 i2l2540 36A4                   i2l2532 365E                   i2l2524 3628  
                 i2l2516 35E2                   i2l2508 35B8                   i2l2276 3386  
                 i2l2268 3360                   i2l2284 33AA                   i2l2196 3148  
                 i2l2188 3138                   i2l2604 4A56                   i2l2700 487C  
                 i2l3092 4998                   i2l3172 4640                   i2l3156 45AC  
                 i2l2462 3C8A                   i2l2454 3C56                   i2l2446 3C08  
                 i2l2374 39E0                   i2l2366 39B0                   i2l2358 397E  
                 i2l2614 47B2                   i2l2630 4400                   i2l2550 3748  
                 i2l2542 36C0                   i2l2534 366A                   i2l2526 3634  
                 i2l2518 35F8                   i2l2294 33FC                   i2l2286 33AE  
                 i2l2278 338A                   i2l2198 314C                   i2l2710 48D2  
                 i2l2702 4888                   i2l3086 494E                   i2l3174 4646  
                 i2l3158 45F2                   i2l2464 3C8C                   i2l2456 3C72  
                 i2l2448 3C0C                   i2l2392 3A34                   i2l2376 39F0  
                 i2l2384 3A10                   i2l2368 39B2                   i2l2616 47C2  
                 i2l2608 4746                   i2l2640 448E                   i2l2632 4410  
                 i2l2624 4394                   i2l2560 379E                   i2l2552 3756  
                 i2l2544 36CC                   i2l2536 367A                   i2l2528 3642  
                 i2l2480 3500                   i2l2472 34D4                   i2l2296 3408  
                 i2l2288 33BC                   i2l2720 452A                   i2l2712 4498  
                 i2l2704 489C                   i2l2800 2696                   i2l3360 3D32  
                 i2l3088 495A                   i2l3096 49A4                   i2l3168 4626  
                 i2l2458 3C76                   i2l2394 3A4E                   i2l2386 3A20  
                 i2l2378 39F8                   i2l2618 47E6                   i2l2642 4494  
                 i2l2634 441E                   i2l2626 43C2                   i2l2562 37AC  
                 i2l2554 3774                   i2l2546 36E8                   i2l2538 3694  
                 i2l2490 353C                   i2l2482 3510                   i2l2474 34E0  
                 i2l2650 4B3A                   i2l2298 3416                   i2l2730 458C  
                 i2l2714 44B8                   i2l2706 48B0                   i2l2810 26E6  
                 i2l2802 26A2                   i2l3362 3DF0                   i2l3098 49B4  
                 i2l2396 3A5E                   i2l2388 3A20                   i2l2636 4430  
                 i2l2628 43D2                   i2l2572 3816                   i2l2580 385E  
                 i2l2564 37B0                   i2l2556 377E                   i2l2548 3712  
                 i2l2492 3542                   i2l2484 3520                   i2l2476 34EE  
                 i2l2660 42B8                   i2l2716 44F6                   i2l2724 4536  
                 i2l2740 4906                   i2l2708 48B4                   i2l2900 2B1E  
                 i2l2820 271A                   i2l2812 26EA                   i2l2804 26AA  
                 i2l3364 3E7A                   i2l2398 3A6E                   i2l2638 443E  
                 i2l2590 38D2                   i2l2582 3878                   i2l2574 3822  
                 i2l2566 37BE                   i2l2558 378C                   i2l2494 3550  
                 i2l2486 3526                   i2l2478 34F0                   i2l2646 4B14  
                 i2l2670 4306                   i2l2662 42E2                   i2l2654 428E  
                 i2l2726 4548                   i2l2718 451E                   i2l2750 3F60  
                 i2l2742 3EC8                   i2l2734 4A8C                   i2l2910 2BDC  
                 i2l2902 2B52                   i2l2830 2776                   i2l2814 26F0  
                 i2l2806 26AE                   i2l2592 38E0                   i2l2584 388C  
                 i2l2576 3830                   i2l2568 37EC                   i2l2496 3552  
                 i2l2488 3536                   i2l2648 4B2A                   i2l2680 4332  
                 i2l2664 42E4                   i2l2656 42A4                   i2l2760 407C  
                 i2l2744 3EE8                   i2l2736 4A9C                   i2l2920 2C78  
                 i2l2912 2BF2                   i2l2904 2B58                   i2l2832 277C  
                 i2l2816 26F8                   i2l2808 26D4                   i2l2824 273A  
                 i2l2594 38E2                   i2l2586 38A6                   i2l2578 385A  
                 i2l2498 3562                   i2l2690 4362                   i2l2666 42F4  
                 i2l2762 4090                   i2l2754 3FD0                   i2l2746 3F3E  
                 i2l2738 48E8                   i2l2770 49F6                   i2l2922 2CCE  
                 i2l2930 2D20                   i2l2914 2C24                   i2l2906 2B76  
                 i2l2850 2806                   i2l2834 2784                   i2l2826 2760  
                 i2l2842 27A0                   i2l2818 2710                   i2l2588 38C2  
                 i2l2596 38E8                   i2l2692 4372                   i2l2676 431E  
                 i2l2668 42F8                   i2l2764 40B8                   i2l2756 400C  
                 i2l2748 3F52                   i2l2772 4A0A                   i2l2780 4A2A  
                 i2l2940 2D52                   i2l2932 2D30                   i2l2924 2CD4  
                 i2l2916 2C34                   i2l2908 2BAA                   i2l2860 28FC  
                 i2l2852 283A                   i2l2844 27BA                   i2l2828 2772  
                 i2l2598 38EC                   i2l2694 4382                   i2l2686 4346  
                 i2l2678 4328                   i2l2766 40C8                   i2l2758 4040  
                 i2l2774 4A16                   i2l2950 2E24                   i2l2942 2DCA  
                 i2l2934 2D38                   i2l2926 2D08                   i2l2918 2C44  
                 i2l2870 29B2                   i2l2862 2930                   i2l2854 2878  
                 i2l2790 2640                   i2l2782 2618                   i2l2688 4352  
                 i2l2776 4A1A                   i2l2960 2E4A                   i2l2952 2E28  
                 i2l2944 2DEA                   i2l2936 2D3E                   i2l2928 2D1C  
                 i2l2880 29E4                   i2l2872 29C0                   i2l2864 2938  
                 i2l2856 28AA                   i2l2848 2800                   i2l2792 2664  
                 i2l2784 261E                   i2l2778 4A26                   i2l2698 486E  
                 i2l2970 2E7E                   i2l2962 2E50                   i2l2954 2E2E  
                 i2l2946 2E06                   i2l2938 2D46                   i2l2882 29F6  
                 i2l2890 2A36                   i2l2874 29CC                   i2l2858 28E8  
                 i2l2794 266E                   i2l2786 262E                   i2l2972 2E84  
                 i2l2956 2E36                   i2l2948 2E14                   i2l2964 2E56  
                 i2l2980 2F1C                   i2l2892 2A3E                   i2l2884 2A04  
                 i2l2876 29D6                   i2l2868 2978                   i2l2796 2676  
                 i2l2788 263C                   i2l2990 2F9E                   i2l2982 2F3A  
                 i2l2974 2EDC                   i2l2966 2E68                   i2l2958 2E46  
                 i2l2894 2A4E                   i2l2886 2A1C                   i2l2878 29DE  
                 i2l2798 2686                   i2l2992 2FAC                   i2l2984 2F56  
                 i2l2976 2F10                   i2l2968 2E7A                   i2l2896 2A62  
                 i2l2888 2A2E                   i2l2994 2FC4                   i2l2986 2F5E  
                 i2l2978 2F18                   i2l2898 2AC6                   i2l2996 2FD4  
                 i2l2988 2F6E                   i2l2998 2FEA         __end_of___xxtofl 428E  
           vfprintf@cfmt 054A                   ___flge 4394                   ___fleq 4746  
              ??___fladd 0509                ??___fldiv 0509                ??___flneg 0505  
              ??___flmul 0517                ??___flsub 0530                ??___fltol 0505  
                 _efgtoa 2618                   _floorf 3EC8                   _memcpy 49F6  
                 clear_0 4B52                   clear_1 4B5E                   isa$std 000001  
                 pad@buf 0513                   _strcpy 4A8C                   fputc@c 0501  
                 fputs@c 050E                   fputs@i 050F                   fputs@s 050A  
         ADC_ISR@str_out 05A0          ___fpclassifyf@e 0509          ___fpclassifyf@u 050B  
        ___fpclassifyf@x 0501             __mediumconst 0000                   tblptrh 0004F7  
                 tblptrl 0004F6                   tblptru 0004F8                   putch@c 0501  
       __end_of_vfprintf 49A4                ??_sprintf 054C               ___flge@ff1 0528  
             ___flge@ff2 052C          ??___fpclassifyf 0505             ___xxtofl@arg 050B  
           ___xxtofl@exp 050A             ___xxtofl@val 0501               ___fleq@ff1 0501  
             ___fleq@ff2 0505               __accesstop 0560  __end_of__initialization 4B76  
             ___flneg@f1 0501            ___rparam_used 000001               ___fltol@f1 0501  
         __pcstackCOMRAM 0501           ivt0x8_undefint 0100            __end_of_fputc 4746  
          __end_of_fputs 4B14            __end_of_putch 4B7E                  ??_fputc 0505  
                ??_fputs 050E                  ??_putch 0501               __pbssBANK5 05B8  
             __pbssBANK6 0600                  IVTBASEH 00045E                  IVTBASEL 00045D  
                IVTBASEU 00045F                  ?___flge 0528                  ?___fleq 0501  
                ?_efgtoa 0534                  ?_floorf 051A                  ?_memcpy 0501  
                _ADC_ISR 4598                  ?_strcpy 0501                ?___xxtofl 0501  
              _ADACTbits 0003F9                _ADPCHbits 0003EC                _ADREFbits 0003F8  
                __Hparam 0000                  __Lparam 0000                  ___fladd 3014  
                ___fldiv 38FE                  ___flneg 4B14                  ___flmul 34D4  
                ___flsub 4A46                  ___fltol 428E                ?_vfprintf 0592  
           __psmallconst 2600                  __pcinit 4B4C                  __ramtop 2600  
                __ptext0 47F0                  __ptext1 4598                  __ptext2 49A4  
                __ptext3 494E                  __ptext4 3C98                  __ptext5 2618  
                __ptext6 4A8C                  __ptext7 486E                  __ptext8 4AD0  
                __ptext9 467C               ??___xxtofl 0505                  efgtoa@c 053A  
                efgtoa@d 056B                  efgtoa@e 056F                  efgtoa@f 0536  
                efgtoa@g 0584                  efgtoa@h 0579                  efgtoa@i 0577  
                efgtoa@l 057D                  efgtoa@m 056D                  efgtoa@n 0582  
                efgtoa@p 0562                  efgtoa@t 0564                  efgtoa@u 0588  
                efgtoa@w 0571                  _sprintf 49A4     end_of_initialization 4B76  
                floorf@e 0528                  floorf@m 0524                  floorf@u 052A  
                floorf@x 051A                  memcpy@d 0507                  memcpy@n 0505  
                memcpy@s 0509                  fputc@fp 0503                  fputs@fp 050C  
      __end_of_vfpfcnvrt 3EC8               efgtoa@mode 0569               efgtoa@sign 0581  
                postdec2 0004DD                  postinc0 0004EE                  postinc1 0004E6  
                postinc2 0004DE         vfpfcnvrt@convarg 053F               ??_vfprintf 054A  
                strcpy@d 0507                  strcpy@s 0505              ___fladd@grs 0510  
          ___xxtofl@sign 0509                _TRISAbits 0004C6                _TRISFbits 0004CB  
            ___fldiv@grs 0514              ___fldiv@rem 050D              ___flmul@grs 051C  
         __end_of___flge 4498           __end_of___fleq 47F0              vfpfcnvrt@ap 0590  
            vfpfcnvrt@cp 0548              vfpfcnvrt@fp 058C           __end_of_efgtoa 3014  
         __end_of_floorf 40DA           __end_of_memcpy 4A46               floorf@F526 05B8  
         __end_of_strcpy 4AD0      start_initialization 4B4C              __end_of_pad 48E8  
             ivt0x8_base 0008                 ADC_ISR@i 05B6    __end_of___fpclassifyf 4596  
            vfprintf@fmt 0594                 ??___flge 0530                 ??___fleq 0509  
               ??_efgtoa 053B                 ??_floorf 051E                 ??_memcpy 0507  
               ?_ADC_ISR 0501                 ??_strcpy 0505                ___fladd@a 0505  
              ___fladd@b 0501                ___fldiv@a 0505                ___fldiv@b 0501  
              ___flmul@a 0513                ___flmul@b 050F              __pbssCOMRAM 055D  
              ___flsub@a 052C                ___flsub@b 0528            __pcstackBANK5 0560  
          __pcstackBANK6 0000              ADC_ISR@THEM 05B2              _efgtoa$1252 0566  
               ?___fladd 0501                 ?___fldiv 0501                 ?___flneg 0501  
               ?___flmul 050F                 ?___flsub 0528                 ?___fltol 0501  
            __smallconst 2600                 ?_sprintf 0598                 _IPR1bits 000363  
               _PIE1bits 00049F                 i2u200_40 337E                 i2u200_41 337A  
               i2u201_40 339A                 i2u201_41 3396                 i2u210_40 3472  
               i2u202_40 33AA                 i2u210_41 346E                 i2u202_41 33A6  
               i2u211_40 3492                 i2u203_40 33BC                 i2u211_41 348E  
               i2u203_41 33B8                 i2u220_40 39A0                 i2u212_40 34A4  
               i2u204_40 33D2                 i2u300_40 2760                 i2u220_41 399C  
               i2u212_41 34A0                 i2u204_41 33CE                 i2u300_41 275C  
               i2u221_40 39E0                 i2u213_40 34C0                 i2u205_40 33E8  
               i2u301_40 2772                 i2u221_41 39DC                 i2u213_41 34BC  
               i2u205_41 33E4                 i2u301_41 276E                 i2u230_40 3B6C  
               i2u222_40 3A20                 i2u206_40 33FC                 i2u214_40 4B12  
               i2u310_40 2A04                 i2u302_40 27EC                 i2u230_41 3B68  
               i2u222_41 3A1C                 i2u206_41 33F8                 i2u214_41 4B0E  
               i2u310_41 2A00                 i2u302_41 27E8                 i2u231_40 3B9A  
               i2u223_40 3A96                 i2u215_40 3918                 i2u207_40 3416  
               i2u311_40 2A2E                 i2u303_40 2878                 i2u231_41 3B96  
               i2u223_41 3A92                 i2u215_41 3914                 i2u207_41 3412  
               i2u311_41 2A2A                 i2u303_41 2874                 i2u232_40 3BB0  
               i2u224_40 3AB8                 i2u216_40 392A                 i2u240_40 3510  
               i2u208_40 3450                 i2u320_40 2E14                 i2u312_40 2B76  
               i2u304_40 28AA                 i2u232_41 3BAC                 i2u224_41 3AB4  
               i2u216_41 3926                 i2u240_41 350C                 i2u208_41 344C  
               i2u320_41 2E10                 i2u312_41 2B72                 i2u304_41 28A6  
               i2u233_40 3BC4                 i2u225_40 3AE2                 i2u217_40 393A  
               i2u241_40 3550                 i2u209_40 3462                 i2u321_40 2E68  
               i2u313_40 2BDC                 i2u305_40 28E8                 i2u233_41 3BC0  
               i2u225_41 3ADE                 i2u217_41 3936                 i2u241_41 354C  
               i2u209_41 345E                 i2u321_41 2E64                 i2u313_41 2BD8  
               i2u305_41 28E4                 i2u330_40 40EC                 i2u234_40 3BDE  
               i2u226_40 3B06                 i2u218_40 397E                 i2u250_40 37EC  
               i2u242_40 3562                 i2u322_40 2F3A                 i2u314_40 2C24  
               i2u306_40 2974                 i2u330_41 40E8                 i2u234_41 3BDA  
               i2u226_41 3B02                 i2u218_41 397A                 i2u250_41 37E8  
               i2u242_41 355E                 i2u322_41 2F36                 i2u314_41 2C20  
               i2u306_41 2970                 i2u331_40 40FA                 i2u235_40 3C26  
               i2u227_40 3B1C                 i2u219_40 3990                 i2u251_40 3802  
               i2u243_40 3572                 i2u171_40 468E                 i2u323_40 2F56  
               i2u315_40 2C34                 i2u307_40 29AA                 i2u331_41 40F6  
               i2u235_41 3C22                 i2u227_41 3B18                 i2u219_41 398C  
               i2u251_41 37FE                 i2u243_41 356E                 i2u171_41 468A  
               i2u323_41 2F52                 i2u315_41 2C30                 i2u307_41 29A6  
               i2u332_40 4156                 i2u236_40 3C56                 i2u228_40 3B3A  
               i2u260_40 43C2                 i2u252_40 3816                 i2u244_40 35A8  
               i2u180_40 30BA                 i2u172_40 46A0                 i2u324_40 2FBE  
               i2u316_40 2CCE                 i2u308_40 29C0                 i2u340_40 4662  
               i2u332_41 4152                 i2u236_41 3C52                 i2u228_41 3B36  
               i2u260_41 43BE                 i2u252_41 3812                 i2u244_41 35A4  
               i2u180_41 30B6                 i2u172_41 469C                 i2u324_41 2FB8  
               i2u316_41 2CCA                 i2u308_41 29BC                 i2u340_41 465E  
               i2u333_40 41AC                 i2u237_40 3C84                 i2u229_40 3B5A  
               i2u261_40 4400                 i2u253_40 3830                 i2u245_40 35B8  
               i2u181_40 30CA                 i2u173_40 46C8                 i2u325_40 2FC0  
               i2u317_40 2D1C                 i2u309_40 29F6                 i2u333_41 41A8  
               i2u237_41 3C80                 i2u229_41 3B56                 i2u261_41 43FC  
               i2u253_41 382C                 i2u245_41 35B4                 i2u181_41 30C6  
               i2u173_41 46C4                 i2u317_41 2D18                 i2u309_41 29F2  
               i2u341_47 463A                 i2u334_40 41F6                 i2u262_40 441E  
               i2u254_40 3878                 i2u246_40 3732                 i2u238_40 34EE  
               i2u190_40 3210                 i2u182_40 3106                 i2u270_40 4342  
               i2u174_40 46FE                 i2u326_40 2FD4                 i2u318_40 2DCA  
               i2u334_41 41F2                 i2u262_41 441A                 i2u254_41 3874  
               i2u238_41 34EA                 i2u190_41 320C                 i2u182_41 3102  
               i2u270_41 433E                 i2u174_41 46FA                 i2u326_41 2FD0  
               i2u318_41 2DC6                 i2u246_45 3728                 i2u335_40 4214  
               i2u263_40 443E                 i2u255_40 38A6                 i2u247_40 378C  
               i2u239_40 3500                 i2u191_40 3220                 i2u183_40 3114  
               i2u175_40 302E                 i2u271_40 4362                 i2u319_40 2E06  
               i2u327_40 3CC0                 i2u335_41 4210                 i2u263_41 443A  
               i2u255_41 38A2                 i2u247_41 3788                 i2u239_41 34FC  
               i2u191_41 321C                 i2u183_41 3110                 i2u175_41 302A  
               i2u271_41 435E                 i2u319_41 2E02                 i2u327_41 3CBC  
               i2u336_40 4224                 i2u264_40 448E                 i2u256_40 38E0  
               i2u248_40 37AC                 i2u192_40 3252                 i2u184_40 3182  
               i2u176_40 3040                 i2u272_40 4372                 i2u280_40 4582  
               i2u328_40 3D70                 i2u336_41 4220                 i2u264_41 448A  
               i2u256_41 38DC                 i2u248_41 37A8                 i2u192_41 324E  
               i2u184_41 317E                 i2u176_41 303C                 i2u272_41 436E  
               i2u280_41 457C                 i2u328_41 3D6C                 i2u337_40 4232  
               i2u257_40 4774                 i2u249_40 37BE                 i2u265_40 4B2A  
               i2u193_40 3260                 i2u185_40 319A                 i2u177_40 3050  
               i2u281_40 4584                 i2u273_40 487C                 i2u329_40 4998  
               i2u337_41 422E                 i2u257_41 4770                 i2u249_41 37BA  
               i2u265_41 4B26                 i2u193_41 325C                 i2u185_41 3194  
               i2u177_41 304C                 i2u273_41 4878                 i2u329_41 4994  
               _PIR1bits 0004AF                 i2u338_40 426C                 i2u258_40 47B2  
               i2u194_40 327E                 i2u186_40 319C                 i2u178_40 3092  
               i2u266_40 42A4                 i2u290_40 400C                 i2u274_40 48D2  
               i2u282_40 4ACE                 i2u338_41 4268                 i2u258_41 47AE  
               i2u194_41 327A                 i2u178_41 308E                 i2u266_41 42A0  
               i2u290_41 4008                 i2u274_41 48CE                 i2u282_41 4ACA  
               i2u339_40 427A                 i2u259_40 47E6                 i2u195_40 32B6  
               i2u187_40 31C4                 i2u179_40 30A8                 i2u267_40 42D8  
               i2u275_40 44D8                 i2u291_40 4060                 i2u283_40 4906  
               i2u339_41 4276                 i2u259_41 47E2                 i2u195_41 32B2  
               i2u187_41 31C0                 i2u179_41 30A4                 i2u283_41 4902  
               i2u267_45 42CE                 i2u275_45 44CE                 i2u291_45 4056  
               i2u196_40 32FC                 i2u188_40 31E2                 i2u268_40 4306  
               i2u276_40 44F6                 i2u292_40 407C                 i2u284_40 3F10  
               i2u196_41 32F8                 i2u188_41 31DE                 i2u268_41 4302  
               i2u276_41 44F2                 i2u292_41 4078                 i2u284_45 3F06  
               i2u197_40 3332                 i2u189_40 3202                 i2u269_40 431A  
               i2u277_40 451E                 i2u293_40 40B8                 i2u285_40 3F3E  
               i2u197_41 332E                 i2u189_41 31FE                 i2u269_41 4316  
               i2u277_41 451A                 i2u293_41 40B4                 i2u285_41 3F3A  
               i2u198_40 3342                 i2u278_40 4548                 i2u286_40 3F60  
               i2u294_40 4A44                 i2u198_41 333E                 i2u278_41 4544  
               i2u286_41 3F5C                 i2u294_41 4A40                 i2u199_40 336E  
               i2u295_40 263C                 i2u199_41 336A                 i2u295_41 2638  
               i2u279_45 455A                 i2u287_45 3F74                 i2u287_46 3F7E  
               i2u287_47 3F8E                 i2u288_40 3FCC                 i2u296_40 2686  
               i2u288_41 3FC8                 i2u296_41 2682                 i2u289_40 3FF0  
               i2u297_40 2696                 i2u297_41 2692                 i2u289_45 3FE6  
               i2u298_40 26D4                 i2u298_41 26D0                 i2u299_40 26E6  
               i2u299_41 26E2                _vfpfcnvrt 3C98               _ADCON0bits 0003F3  
             _ADCON3bits 0003F6               vfpfcnvrt@c 0547              _INTCON0bits 0004D6  
            _U1RXPPSbits 000272                 __Hrparam 0000                memcpy@tmp 050B  
             vfprintf@ap 0596                 __Lrparam 0000               vfprintf@fp 0592  
             ?_vfpfcnvrt 058C               _ANSELAbits 000400       ___fpclassifyf@F465 05BC  
             sprintf@fmt 059A                 ___xxtofl 40DA                 __pivt0x8 0008  
               __ptext10 4B7C                 __ptext11 49F6                 __ptext20 4394  
               __ptext12 48E8                 __ptext21 4746                 __ptext13 3EC8  
               __ptext22 38FE                 __ptext14 4498                 __ptext23 40DA  
               __ptext15 428E                 __ptext16 4A46                 __ptext17 3014  
               __ptext18 4B14                 __ptext19 34D4               _U1CON0bits 0002AB  
             _U1CON1bits 0002AC               _U1FIFObits 0002B0               strcpy@dest 0501  
               efgtoa@fp 0534                 efgtoa@ne 0560                 efgtoa@pp 0568  
               efgtoa@ou 0573                 isa$xinst 000000                 _vfprintf 494E  
               memcpy@d1 0501                 memcpy@s1 0503                 intlevel2 0000  
              sprintf@ap 054C                strcpy@src 0503              efgtoa@nmode 056A  
            ??_vfpfcnvrt 053D                 sprintf@f 054E                 sprintf@s 0598  
          ___fladd@signs 050D             ___fladd@aexp 050E             ___fladd@bexp 050F  
